(dp0
S'Galena,+OH'
p1
(dp2
S'lat'
p3
F40.21506249999999
sS'lon'
p4
F-82.8799013
ssS'Heber+City,+UT'
p5
(dp6
g3
F40.5070087
sg4
F-111.4133234
ssS'Oak+Ridge,+TN'
p7
(dp8
g3
F36.0103561
sg4
F-84.26964490000002
ssS'Brooklyn+Heights,+OH'
p9
(dp10
g3
F41.4164222
sg4
F-81.6665149
ssS'Oakbrook+Terrace,+IL'
p11
(dp12
g3
F41.8500302
sg4
F-87.96450770000001
ssS'Liberty,+MO'
p13
(dp14
g3
F39.2461138
sg4
F-94.4191177
ssS'Oradell,+NJ'
p15
(dp16
g3
F40.9587093
sg4
F-74.0368064
ssS'Huntersville,+NC'
p17
(dp18
g3
F35.410694
sg4
F-80.84285040000002
ssS'South+El+Monte,+CA'
p19
(dp20
g3
F34.0519548
sg4
F-118.0467339
ssS'Cranston,+RI'
p21
(dp22
g3
F41.7798226
sg4
F-71.4372796
ssS'Valdosta,+GA'
p23
(dp24
g3
F30.8327022
sg4
F-83.2784851
ssS'las+vegas,+NV'
p25
(dp26
g3
F36.1699412
sg4
F-115.1398296
ssS'Grand+Rapids,+MI'
p27
(dp28
g3
F42.9633599
sg4
F-85.6680863
ssS'Lakewood,+CO'
p29
(dp30
g3
F39.7047095
sg4
F-105.0813734
ssS'Oak+Park,+MI'
p31
(dp32
g3
F42.4594803
sg4
F-83.18270509999999
ssS'Payson,+AZ'
p33
(dp34
g3
F34.2308684
sg4
F-111.3251355
ssS'Newark,+DE'
p35
(dp36
g3
F39.6837226
sg4
F-75.74965720000002
ssS'Brown+Summit,+NC'
p37
(dp38
g3
F36.2025466
sg4
F-79.7089159
ssS'South+Plainfield,+NJ'
p39
(dp40
g3
F40.5792701
sg4
F-74.4115401
ssS'Saratoga,+CA'
p41
(dp42
g3
F37.2638324
sg4
F-122.0230146
ssS'Hastings,+MN'
p43
(dp44
g3
F44.7443293
sg4
F-92.8513706
ssS'Minooka,+IL'
p45
(dp46
g3
F41.4553084
sg4
F-88.2617305
ssS'Richfield,+OH'
p47
(dp48
g3
F41.2397772
sg4
F-81.6381785
ssS'Morrisville,+NC'
p49
(dp50
g3
F35.823483
sg4
F-78.8255621
ssS'Anderson,+IN'
p51
(dp52
g3
F40.1053196
sg4
F-85.6802541
ssS'Newington,+NH'
p53
(dp54
g3
F43.1000871
sg4
F-70.8336668
ssS'Jacksonville+Beach,+FL'
p55
(dp56
g3
F30.2841224
sg4
F-81.3961338
ssS'Black+Creek,+GA'
p57
(dp58
g3
F32.165445
sg4
F-81.48650789999999
ssS'McKeesport,+PA'
p59
(dp60
g3
F40.3470671
sg4
F-79.8641232
ssS'Fremont,+CA'
p61
(dp62
g3
F37.5482697
sg4
F-121.9885719
ssS'Bloomingdale,+IL'
p63
(dp64
g3
F41.9575285
sg4
F-88.0809036
ssS'Roseville,+MN'
p65
(dp66
g3
F45.0060767
sg4
F-93.15661070000002
ssS'Thousand+Oaks,+CA'
p67
(dp68
g3
F34.1705609
sg4
F-118.8375937
ssS'Colts+Neck,+NJ'
p69
(dp70
g3
F40.2876108
sg4
F-74.1723652
ssS'Seabrook,+NH'
p71
(dp72
g3
F42.893611
sg4
F-70.873333
ssS'Rockville,+MD'
p73
(dp74
g3
F39.0839973
sg4
F-77.1527578
ssS'Troy,+NY'
p75
(dp76
g3
F42.7284117
sg4
F-73.69178509999999
ssS'Salina,+KS'
p77
(dp78
g3
F38.8402805
sg4
F-97.61142369999999
ssS'Folsom,+CA'
p79
(dp80
g3
F38.6779591
sg4
F-121.1760583
ssS'Pleasant+Grove,+UT'
p81
(dp82
g3
F40.3641184
sg4
F-111.73854
ssS'Hoboken,+NJ'
p83
(dp84
g3
F40.7439905
sg4
F-74.0323626
ssS'Woodward,+OK'
p85
(dp86
g3
F36.4336481
sg4
F-99.3903862
ssS'Greenwood+Village,+CO'
p87
(dp88
g3
F39.6172101
sg4
F-104.9508141
ssS'Oxnard,+CA'
p89
(dp90
g3
F34.1975048
sg4
F-119.1770516
ssS'Tamarac,+FL'
p91
(dp92
g3
F26.2128609
sg4
F-80.2497707
ssS'Saint+Louis,+MO'
p93
(dp94
g3
F38.6270025
sg4
F-90.19940419999999
ssS'Washingtonton,+DC'
p95
(dp96
g3
F38.9071923
sg4
F-77.0368707
ssS'Sugar+Land,+TX'
p97
(dp98
g3
F29.6196787
sg4
F-95.6349463
ssS'San+Leandro,+CA'
p99
(dp100
g3
F37.7249296
sg4
F-122.1560768
ssS'Piketon,+OH'
p101
(dp102
g3
F39.0681252
sg4
F-83.01434429999999
ssS'Gloucester+Ciy,+NJ'
p103
(dp104
g3
F39.8917799
sg4
F-75.1162863
ssS'West+Des+Moines,+IA'
p105
(dp106
g3
F41.5772115
sg4
F-93.711332
ssS'Carlsbad,+CA'
p107
(dp108
g3
F33.1580933
sg4
F-117.3505939
ssS'Sussex,+NJ'
p109
(dp110
g3
F41.20981769999999
sg4
F-74.6076614
ssS'Winder,+GA'
p111
(dp112
g3
F33.9926097
sg4
F-83.7201709
ssS'Schaumburg,+IL'
p113
(dp114
g3
F42.0333607
sg4
F-88.0834059
ssS'Fort+Thomas,+KY'
p115
(dp116
g3
F39.07506070000001
sg4
F-84.4471633
ssS'West+Monroe,+LA'
p117
(dp118
g3
F32.5184775
sg4
F-92.14763529999999
ssS'Sunrise,+FL'
p119
(dp120
g3
F26.1669711
sg4
F-80.25659499999999
ssS'Beltsville,+MD'
p121
(dp122
g3
F39.0348317
sg4
F-76.9074739
ssS'St+Petersburgh,+FL'
p123
(dp124
g3
F27.773056
sg4
F-82.64
ssS'Woodbury,+NJ'
p125
(dp126
g3
F39.83816909999999
sg4
F-75.1526774
ssS'scotch+plains,+NJ'
p127
(dp128
g3
F40.6400404
sg4
F-74.369018
ssS'Burnsville,+MN'
p129
(dp130
g3
F44.7677424
sg4
F-93.27772259999999
ssS'Shaumburg,+IL'
p131
(dp132
g3
F42.0333607
sg4
F-88.0834059
ssS'North+Wales,+PA'
p133
(dp134
g3
F40.2109404
sg4
F-75.2782317
ssS'Borger,+TX'
p135
(dp136
g3
F35.6678203
sg4
F-101.3973876
ssS'Athens,+GA'
p137
(dp138
g3
F33.95
sg4
F-83.383333
ssS'Somerville,+MA'
p139
(dp140
g3
F42.3875968
sg4
F-71.0994968
ssS'LaGrange,+OH'
p141
(dp142
g3
F41.2372753
sg4
F-82.119872
ssS'Bar+Mills,+ME'
p143
(dp144
g3
F43.61313639999999
sg4
F-70.5497762
ssS'Pelham,+AL'
p145
(dp146
g3
F33.2856687
sg4
F-86.8099885
ssS'Mesquite,+TX'
p147
(dp148
g3
F32.76679550000001
sg4
F-96.5991593
ssS'Omaha,+NE'
p149
(dp150
g3
F41.2523634
sg4
F-95.99798829999999
ssS'Waterford,+MI'
p151
(dp152
g3
F42.6907443
sg4
F-83.4066132
ssS'Florham+Park,+NJ'
p153
(dp154
g3
F40.787878
sg4
F-74.3882072
ssS'Fairfax,+VA'
p155
(dp156
g3
F38.84622359999999
sg4
F-77.30637329999999
ssS'Fort+Valley,+GA'
p157
(dp158
g3
F32.5537585
sg4
F-83.8874084
ssS'Midwest+City,+OK'
p159
(dp160
g3
F35.4495065
sg4
F-97.3967019
ssS'Lone+Tree,+CO'
p161
(dp162
g3
F39.536482
sg4
F-104.8970678
ssS'East+Providence,+RI'
p163
(dp164
g3
F41.8137116
sg4
F-71.3700545
ssS'High+Point,+NC'
p165
(dp166
g3
F35.9556923
sg4
F-80.0053176
ssS'Little+Ferry,+NJ'
p167
(dp168
g3
F40.8528777
sg4
F-74.0420848
ssS'East+Hartford,+CT'
p169
(dp170
g3
F41.7634219
sg4
F-72.6128339
ssS'Fountain+Valley,+CA'
p171
(dp172
g3
F33.7091847
sg4
F-117.9536697
ssS'Sparta,+WI'
p173
(dp174
g3
F43.9441328
sg4
F-90.8129118
ssS'Sausalito,+CA'
p175
(dp176
g3
F37.8590937
sg4
F-122.4852507
ssS'Greenwood,+SC'
p177
(dp178
g3
F34.1954001
sg4
F-82.1617883
ssS'Athens,+AL'
p179
(dp180
g3
F34.8028661
sg4
F-86.9716741
ssS'Belmar,+NJ'
p181
(dp182
g3
F40.1784471
sg4
F-74.02180369999999
ssS'Eagan,+MN'
p183
(dp184
g3
F44.8041322
sg4
F-93.1668858
ssS'Madison,+WI'
p185
(dp186
g3
F43.0730517
sg4
F-89.4012302
ssS'Bern,+KS'
p187
(dp188
g3
F39.96222179999999
sg4
F-95.9719422
ssS'Reno,+NV'
p189
(dp190
g3
F39.5296329
sg4
F-119.8138027
ssS'West+Sacramento,+CA'
p191
(dp192
g3
F38.5804609
sg4
F-121.530234
ssS'Memphis,+TN'
p193
(dp194
g3
F35.1495343
sg4
F-90.0489801
ssS'Georgetown,+TX'
p195
(dp196
g3
F30.6332618
sg4
F-97.6779842
ssS'Corte+Madera,+CA'
p197
(dp198
g3
F37.9254806
sg4
F-122.5274755
ssS'East+Stroudsburg,+PA'
p199
(dp200
g3
F40.9995386
sg4
F-75.1812913
ssS'Youngsville,+LA'
p201
(dp202
g3
F30.0996471
sg4
F-91.9901206
ssS'Blissfield,+MI'
p203
(dp204
g3
F41.8325486
sg4
F-83.8624411
ssS'Sarasota,+FL'
p205
(dp206
g3
F27.3364347
sg4
F-82.53065269999999
ssS'Baldwin+Park,+CA'
p207
(dp208
g3
F34.0852868
sg4
F-117.9608978
ssS'Chicago,+IL'
p209
(dp210
g3
F41.8781136
sg4
F-87.6297982
ssS'Glen+Rock,+NJ'
p211
(dp212
g3
F40.9628758
sg4
F-74.1329207
ssS'Manchester,+NH'
p213
(dp214
g3
F42.9956397
sg4
F-71.4547891
ssS'San+Jose,+CA'
p215
(dp216
g3
F37.3393857
sg4
F-121.8949555
ssS'Marlborough,+MA'
p217
(dp218
g3
F42.3459271
sg4
F-71.5522874
ssS'The+Villages,+FL'
p219
(dp220
g3
F28.927019
sg4
F-82.0037608
ssS'San+Antoniio,+TX'
p221
(dp222
g3
F29.4241219
sg4
F-98.49362819999999
ssS'Scottsdale,+AZ'
p223
(dp224
g3
F33.4941704
sg4
F-111.9260519
ssS'Troy,+MI'
p225
(dp226
g3
F42.6064095
sg4
F-83.1497751
ssS'Ronkonkoma,+NY'
p227
(dp228
g3
F40.80641869999999
sg4
F-73.1241488
ssS'Glastonbury,+CT'
p229
(dp230
g3
F41.6861794
sg4
F-72.5450779
ssS'Wallingford,+CT'
p231
(dp232
g3
F41.4570108
sg4
F-72.8230736
ssS'Leavenworth,+KS'
p233
(dp234
g3
F39.3111112
sg4
F-94.9224637
ssS'Franklin,+NJ'
p235
(dp236
g3
F40.476872
sg4
F-74.55044699999999
ssS'Wakefield,+MA'
p237
(dp238
g3
F42.5039395
sg4
F-71.0723391
ssS'Irvington,+NY'
p239
(dp240
g3
F41.0391
sg4
F-73.86699999999999
ssS'Edison,+NJ'
p241
(dp242
g3
F40.5187154
sg4
F-74.4120953
ssS'St.+Paul,+MN'
p243
(dp244
g3
F44.9537029
sg4
F-93.0899578
ssS'Hiawatha,+IA'
p245
(dp246
g3
F42.0491958
sg4
F-91.6815252
ssS'Budd+Lake,+NJ'
p247
(dp248
g3
F40.8712101
sg4
F-74.7340523
ssS'Oregon+City,+OR'
p249
(dp250
g3
F45.3573429
sg4
F-122.6067583
ssS'Inwood,+NY'
p251
(dp252
g3
F40.867216
sg4
F-73.92128579999999
ssS'Hawthorne,+NJ'
p253
(dp254
g3
F40.9492649
sg4
F-74.1537549
ssS'Wheaton,+IL'
p255
(dp256
g3
F41.8661403
sg4
F-88.1070127
ssS'Brooksville,+FL'
p257
(dp258
g3
F28.5552719
sg4
F-82.3878709
ssS'Charleston,+SC'
p259
(dp260
g3
F32.7764749
sg4
F-79.93105120000001
ssS'Woburn,+MA'
p261
(dp262
g3
F42.4792618
sg4
F-71.1522765
ssS'Berkeley,+IL'
p263
(dp264
g3
F41.8889194
sg4
F-87.9033956
ssS'Chapel+Hill,+NC'
p265
(dp266
g3
F35.9131996
sg4
F-79.0558445
ssS'Pine+Grove,+PA'
p267
(dp268
g3
F40.5484233
sg4
F-76.3846781
ssS'Breinigsville,+PA'
p269
(dp270
g3
F40.5393961
sg4
F-75.631484
ssS'Campbell,+CA'
p271
(dp272
g3
F37.2871651
sg4
F-121.9499568
ssS'San+Ramon,+CA'
p273
(dp274
g3
F37.7799273
sg4
F-121.9780153
ssS'Hoffman+Estates,+IL'
p275
(dp276
g3
F42.0629915
sg4
F-88.12271989999999
ssS'Tracy,+CA'
p277
(dp278
g3
F37.7396513
sg4
F-121.4252227
ssS'washington,+NJ'
p279
(dp280
g3
F40.7584326
sg4
F-74.9793378
ssS'Plainsboro,+NJ'
p281
(dp282
g3
F40.3382543
sg4
F-74.585292
ssS'leesburg,+VA'
p283
(dp284
g3
F39.1156615
sg4
F-77.56360149999999
ssS'San+Bruno,+CA'
p285
(dp286
g3
F37.6304904
sg4
F-122.4110835
ssS'Burr+Ridge,+IL'
p287
(dp288
g3
F41.74892029999999
sg4
F-87.91839189999999
ssS'Sherman+Oaks,+CA'
p289
(dp290
g3
F34.1489719
sg4
F-118.451357
ssS'Edmond,+OK'
p291
(dp292
g3
F35.6528323
sg4
F-97.47809540000002
ssS'Calhoun,+GA'
p293
(dp294
g3
F34.502587
sg4
F-84.9510542
ssS'Bessemer,+AL'
p295
(dp296
g3
F33.4017766
sg4
F-86.954437
ssS'Libertyville,+IL'
p297
(dp298
g3
F42.2830786
sg4
F-87.9531303
ssS'Yonkers,+NY'
p299
(dp300
g3
F40.9312099
sg4
F-73.89874689999999
ssS"O'Fallon,+IL"
p301
(dp302
g3
F38.592323
sg4
F-89.910991
ssS'Williamston,+MI'
p303
(dp304
g3
F42.6889235
sg4
F-84.2830245
ssS'Lorton,+VA'
p305
(dp306
g3
F38.704282
sg4
F-77.2277603
ssS'Hewlett,+NY'
p307
(dp308
g3
F40.6431591
sg4
F-73.6956864
ssS'Wall+Township,+NJ'
p309
(dp310
g3
F40.1606666
sg4
F-74.0679753
ssS'Mount+Vernon,+MO'
p311
(dp312
g3
F37.1036665
sg4
F-93.81854009999999
ssS'Fullerton,+CA'
p313
(dp314
g3
F33.8703596
sg4
F-117.9242966
ssS'Mebane,+NC'
p315
(dp316
g3
F36.0959715
sg4
F-79.2669619
ssS'Novato,+CA'
p317
(dp318
g3
F38.1074198
sg4
F-122.5697032
ssS'Mission+Viejo,+CA'
p319
(dp320
g3
F33.6000232
sg4
F-117.6719953
ssS'Southlake,+TX'
p321
(dp322
g3
F32.9412363
sg4
F-97.1341783
ssS'Spokane+Valley,+WA'
p323
(dp324
g3
F47.6732281
sg4
F-117.2393748
ssS'South+Easton,+MA'
p325
(dp326
g3
F42.0473222
sg4
F-71.08143580000001
ssS'Elgin,+IL'
p327
(dp328
g3
F42.033333
sg4
F-88.283333
ssS'Dumfries,+VA'
p329
(dp330
g3
F38.5676202
sg4
F-77.3280382
ssS'DFW+Airport,+TX'
p331
(dp332
g3
F32.8998091
sg4
F-97.0403352
ssS'Orange,+CA'
p333
(dp334
g3
F33.7877944
sg4
F-117.8531119
ssS'Houston,+TX'
p335
(dp336
g3
F29.7601927
sg4
F-95.36938959999999
ssS'Gibson,+LA'
p337
(dp338
g3
F29.68687559999999
sg4
F-90.990653
ssS'Anacortes,+WA'
p339
(dp340
g3
F48.51260449999999
sg4
F-122.6126718
ssS'Pico+Rivera,+CA'
p341
(dp342
g3
F33.9830688
sg4
F-118.096735
ssS'Potomac+Falls,+VA'
p343
(dp344
g3
F39.0366372
sg4
F-77.4002206
ssS'Kenosha,+WI'
p345
(dp346
g3
F42.5847425
sg4
F-87.82118539999999
ssS'Rockville,+VA'
p347
(dp348
g3
F37.726111
sg4
F-77.678333
ssS'North+Pole,+AK'
p349
(dp350
g3
F64.7511111
sg4
F-147.3494444
ssS'Bloomfield+Hills,+MI'
p351
(dp352
g3
F42.583645
sg4
F-83.24548829999999
ssS'Springfield,+MO'
p353
(dp354
g3
F37.2089572
sg4
F-93.29229889999999
ssS'Elberton,+GA'
p355
(dp356
g3
F34.1112226
sg4
F-82.8670839
ssS'Fairhaven,+MA'
p357
(dp358
g3
F41.6376043
sg4
F-70.90364869999999
ssS'Encinitas,+CA'
p359
(dp360
g3
F33.0369867
sg4
F-117.2919818
ssS'PIttsburgh,+PA'
p361
(dp362
g3
F40.44062479999999
sg4
F-79.9958864
ssS'Norfolk,+NE'
p363
(dp364
g3
F42.03272339999999
sg4
F-97.41375529999999
ssS'Campbellsport,+WI'
p365
(dp366
g3
F43.5977728
sg4
F-88.2789873
ssS'Mableton,+GA'
p367
(dp368
g3
F33.8187167
sg4
F-84.5824329
ssS'Norcross,+GA'
p369
(dp370
g3
F33.9412127
sg4
F-84.2135309
ssS'Colorado+Springs,+CO'
p371
(dp372
g3
F38.8338816
sg4
F-104.8213634
ssS'Manchester,+MO'
p373
(dp374
g3
F38.5969977
sg4
F-90.5092882
ssS'Gold+River,+CA'
p375
(dp376
g3
F38.6262937
sg4
F-121.2466156
ssS'Lafayette,+CO'
p377
(dp378
g3
F39.9935959
sg4
F-105.0897058
ssS'Northbrook,+IL'
p379
(dp380
g3
F42.1275267
sg4
F-87.82895479999999
ssS'Lafayette,+CA'
p381
(dp382
g3
F37.8857582
sg4
F-122.1180201
ssS'Lyndhurst,+NJ'
p383
(dp384
g3
F40.81201710000001
sg4
F-74.1243063
ssS'Franklin+park,+IL'
p385
(dp386
g3
F41.9348537
sg4
F-87.87952299999999
ssS'Independence,+OH'
p387
(dp388
g3
F41.3686645
sg4
F-81.63790329999999
ssS'Portage,+OH'
p389
(dp390
g3
F41.3267189
sg4
F-83.6507668
ssS'Weston,+FL'
p391
(dp392
g3
F26.1003654
sg4
F-80.3997748
ssS'Windsor+Mill,+MD'
p393
(dp394
g3
F39.33288390000001
sg4
F-76.7594179
ssS'lake+worth,+FL'
p395
(dp396
g3
F26.6167555
sg4
F-80.0684479
ssS'Sterling+Heights,+MI'
p397
(dp398
g3
F42.5803122
sg4
F-83.0302033
ssS'Mobile,+AL'
p399
(dp400
g3
F30.6953657
sg4
F-88.0398912
ssS'Marietta,+GA'
p401
(dp402
g3
F33.95260200000001
sg4
F-84.5499327
ssS'Alcoa,+TN'
p403
(dp404
g3
F35.7895271
sg4
F-83.9737935
ssS'Bluffdale,+UT'
p405
(dp406
g3
F40.4896711
sg4
F-111.9388244
ssS'Taylor,+MI'
p407
(dp408
g3
F42.240872
sg4
F-83.2696509
ssS'Franklin,+OH'
p409
(dp410
g3
F39.5589474
sg4
F-84.30410739999999
ssS'Bedminster,+NJ'
p411
(dp412
g3
F40.669264
sg4
F-74.68039999999999
ssS'Gainesville,+FL'
p413
(dp414
g3
F29.6516344
sg4
F-82.32482619999999
ssS'Castleton,+NY'
p415
(dp416
g3
F43.6106223
sg4
F-73.17983199999999
ssS'Coventry,+RI'
p417
(dp418
g3
F41.6885978
sg4
F-71.5642076
ssS'Landover,+MD'
p419
(dp420
g3
F38.9340002
sg4
F-76.8966397
ssS'Andover,+MA'
p421
(dp422
g3
F42.6583356
sg4
F-71.1367953
ssS'Beavercreek,+OH'
p423
(dp424
g3
F39.7092262
sg4
F-84.06326849999999
ssS'Wellesley,+MA'
p425
(dp426
g3
F42.296797
sg4
F-71.29238769999999
ssS'Norman,+OK'
p427
(dp428
g3
F35.2225668
sg4
F-97.4394777
ssS'New+Castle,+DE'
p429
(dp430
g3
F39.6620397
sg4
F-75.5668166
ssS'San+Mateo,+CA'
p431
(dp432
g3
F37.5629917
sg4
F-122.3255254
ssS'pompano+beach,+FL'
p433
(dp434
g3
F26.2378597
sg4
F-80.1247667
ssS'West+Chester,+PA'
p435
(dp436
g3
F39.9606643
sg4
F-75.6054882
ssS'Needham,+MA'
p437
(dp438
g3
F42.2809285
sg4
F-71.23775479999999
ssS'Haiku,+HI'
p439
(dp440
g3
F20.9175
sg4
F-156.3258333
ssS'Westland,+MI'
p441
(dp442
g3
F42.32420399999999
sg4
F-83.400211
ssS'Concord,+NC'
p443
(dp444
g3
F35.4087517
sg4
F-80.579511
ssS'Rochelle+Park,+NJ'
p445
(dp446
g3
F40.9073328
sg4
F-74.07512729999999
ssS'Concord,+NH'
p447
(dp448
g3
F43.2081366
sg4
F-71.5375718
ssS'Norristown,+PA'
p449
(dp450
g3
F40.121497
sg4
F-75.3399048
ssS'Dripping+Springs,+TX'
p451
(dp452
g3
F30.1902067
sg4
F-98.0866781
ssS'Loveland,+OH'
p453
(dp454
g3
F39.2689476
sg4
F-84.26382600000001
ssS'Mansfield,+TX'
p455
(dp456
g3
F32.5631924
sg4
F-97.1416768
ssS'Southborough,+MA'
p457
(dp458
g3
F42.3056501
sg4
F-71.5245087
ssS'Louisville,+CO'
p459
(dp460
g3
F39.977763
sg4
F-105.1319296
ssS'Oklahoma+City,+OK'
p461
(dp462
g3
F35.4675602
sg4
F-97.5164276
ssS'Brownsboro,+AL'
p463
(dp464
g3
F34.7492568
sg4
F-86.443044
ssS'Addison,+IL'
p465
(dp466
g3
F41.931696
sg4
F-87.9889556
ssS'Seatle,+WA'
p467
(dp468
g3
F47.6062095
sg4
F-122.3320708
ssS'Richmond,+CA'
p469
(dp470
g3
F37.9357576
sg4
F-122.3477486
ssS'Bellingham,+WA'
p471
(dp472
g3
F48.74908
sg4
F-122.4781473
ssS'Port+Orange,+FL'
p473
(dp474
g3
F29.1383165
sg4
F-80.9956105
ssS'Mentor,+OH'
p475
(dp476
g3
F41.6661573
sg4
F-81.339552
ssS'Brentwood,+CA'
p477
(dp478
g3
F37.931868
sg4
F-121.6957863
ssS'Saugus,+MA'
p479
(dp480
g3
F42.4651421
sg4
F-71.0110473
ssS'Fort+Lauderdale,+FL'
p481
(dp482
g3
F26.1224386
sg4
F-80.13731740000001
ssS'Ames,+IA'
p483
(dp484
g3
F42.034722
sg4
F-93.61999999999999
ssS'Sacramento,+CA'
p485
(dp486
g3
F38.5815719
sg4
F-121.4943996
ssS'Mary+Esther,+FL'
p487
(dp488
g3
F30.4099215
sg4
F-86.6630098
ssS'Lincolnwood,+IL'
p489
(dp490
g3
F42.0044757
sg4
F-87.73005940000002
ssS'Ocean,+NJ'
p491
(dp492
g3
F40.2479729
sg4
F-74.029843
ssS'Turlock,+CA'
p493
(dp494
g3
F37.4946568
sg4
F-120.8465941
ssS'Hasbrouck+Heights,+NJ'
p495
(dp496
g3
F40.85815530000001
sg4
F-74.0806971
ssS'Fresno,+CA'
p497
(dp498
g3
F36.7468422
sg4
F-119.7725868
ssS'Orrville,+OH'
p499
(dp500
g3
F40.8436663
sg4
F-81.7640212
ssS'Volo,+IL'
p501
(dp502
g3
F42.3261332
sg4
F-88.167861
ssS'Garden+City,+NY'
p503
(dp504
g3
F40.7267682
sg4
F-73.6342954
ssS'Columbus,+OH'
p505
(dp506
g3
F39.9611755
sg4
F-82.99879419999999
ssS'Boca+Raton,+FL'
p507
(dp508
g3
F26.3683064
sg4
F-80.1289321
ssS'Port+Washington,+WI'
p509
(dp510
g3
F43.3872247
sg4
F-87.875644
ssS'Emerald+Isle,+NC'
p511
(dp512
g3
F34.6779399
sg4
F-76.95077619999999
ssS'Holbrook,+NY'
p513
(dp514
g3
F40.81232050000001
sg4
F-73.0784429
ssS'Lexington,+KY'
p515
(dp516
g3
F38.0405837
sg4
F-84.5037164
ssS'Santa+Monica,+CA'
p517
(dp518
g3
F34.0194543
sg4
F-118.4911912
ssS'Pompano+Beach,+FL'
p519
(dp520
g3
F26.2378597
sg4
F-80.1247667
ssS'Peabody,+MA'
p521
(dp522
g3
F42.5278731
sg4
F-70.9286609
ssS'Westchester,+IL'
p523
(dp524
g3
F41.8498339
sg4
F-87.8806738
ssS'Kansas+City,+KS'
p525
(dp526
g3
F39.114053
sg4
F-94.6274636
ssS'Henrietta,+NY'
p527
(dp528
g3
F43.0592452
sg4
F-77.6128039
ssS'Nyack,+NY'
p529
(dp530
g3
F41.0906519
sg4
F-73.9179146
ssS'Pleasant+Hill,+MO'
p531
(dp532
g3
F38.7875094
sg4
F-94.26939109999999
ssS'Hendersonville,+TN'
p533
(dp534
g3
F36.3047735
sg4
F-86.6199957
ssS'Berkeley+Heights,+NJ'
p535
(dp536
g3
F40.6808726
sg4
F-74.4310524
ssS'Monett,+MO'
p537
(dp538
g3
F36.9289502
sg4
F-93.92770709999999
ssS'Lemont,+IL'
p539
(dp540
g3
F41.673642
sg4
F-88.0017261
ssS'Broomfield,+CO'
p541
(dp542
g3
F39.9205411
sg4
F-105.0866504
ssS'Oak+Harbor,+OH'
p543
(dp544
g3
F41.5067173
sg4
F-83.1465875
ssS'Agoura+Hills,+CA'
p545
(dp546
g3
F34.1533395
sg4
F-118.7616764
ssS'Powell,+OH'
p547
(dp548
g3
F40.1578402
sg4
F-83.07518689999999
ssS'Malvern,+AR'
p549
(dp550
g3
F34.3623149
sg4
F-92.81294620000001
ssS'Starkville,+MS'
p551
(dp552
g3
F33.4503998
sg4
F-88.81838719999999
ssS'Barrington,+IL'
p553
(dp554
g3
F42.1539141
sg4
F-88.1361888
ssS'Alexandria,+VA'
p555
(dp556
g3
F38.8048355
sg4
F-77.0469214
ssS'Rolling+Hills+Estate,+CA'
p557
(dp558
g3
F33.7856577
sg4
F-118.3409071
ssS'Chino,+CA'
p559
(dp560
g3
F34.0122346
sg4
F-117.688944
ssS'Cedar+Park,+TX'
p561
(dp562
g3
F30.505198
sg4
F-97.8202888
ssS'Vernon,+CA'
p563
(dp564
g3
F34.003903
sg4
F-118.230073
ssS'Camarillo,+CA'
p565
(dp566
g3
F34.2163937
sg4
F-119.0376023
ssS'Tarrytown,+NY'
p567
(dp568
g3
F41.0762077
sg4
F-73.85874609999999
ssS'Port+Matilda,+PA'
p569
(dp570
g3
F40.799504
sg4
F-78.0541736
ssS'Hicksville,+NY'
p571
(dp572
g3
F40.7684331
sg4
F-73.5251253
ssS'Albany,+NY'
p573
(dp574
g3
F42.6525793
sg4
F-73.7562317
ssS'Bay+Head,+NJ'
p575
(dp576
g3
F40.0717828
sg4
F-74.0543036
ssS'Clearwater,+FL'
p577
(dp578
g3
F27.9658533
sg4
F-82.8001026
ssS'Thermal,+CA'
p579
(dp580
g3
F33.6402638
sg4
F-116.1422353
ssS'Geismar,+LA'
p581
(dp582
g3
F30.2193468
sg4
F-91.00650879999999
ssS'North+Charleston,+SC'
p583
(dp584
g3
F32.8546197
sg4
F-79.9748103
ssS'Wauwatosa,+WI'
p585
(dp586
g3
F43.0494572
sg4
F-88.0075875
ssS'Jensen+Beach,+FL'
p587
(dp588
g3
F27.2544906
sg4
F-80.22976969999999
ssS'St+James,+NY'
p589
(dp590
g3
F40.877222
sg4
F-73.155278
ssS'Bothell,+WA'
p591
(dp592
g3
F47.7623204
sg4
F-122.2054035
ssS'Oceanside,+CA'
p593
(dp594
g3
F33.1958696
sg4
F-117.3794834
ssS'Scarsdale,+NY'
p595
(dp596
g3
F41.0050977
sg4
F-73.7845768
ssS'Hayward,+CA'
p597
(dp598
g3
F37.6688205
sg4
F-122.0807964
ssS'Grapevine,+TX'
p599
(dp600
g3
F32.9342919
sg4
F-97.0780654
ssS'Audubon,+PA'
p601
(dp602
g3
F40.12788390000001
sg4
F-75.43185319999999
ssS'Peoria,+IL'
p603
(dp604
g3
F40.6936488
sg4
F-89.5889864
ssS'Hadley,+MA'
p605
(dp606
g3
F42.3417565
sg4
F-72.58842220000001
ssS'Saratoga+Springs,+NY'
p607
(dp608
g3
F43.0831301
sg4
F-73.7845651
ssS'Tualatin,+OR'
p609
(dp610
g3
F45.3840077
sg4
F-122.7639851
ssS'Longmont,+CO'
p611
(dp612
g3
F40.1672068
sg4
F-105.1019275
ssS'Milwaukee,+WI'
p613
(dp614
g3
F43.0389025
sg4
F-87.9064736
ssS'Birmingham,+MI'
p615
(dp616
g3
F42.5467012
sg4
F-83.21131919999999
ssS'Laramie,+WY'
p617
(dp618
g3
F41.3113669
sg4
F-105.5911007
ssS'St.+Rose,+LA'
p619
(dp620
g3
F29.9468716
sg4
F-90.3231349
ssS'Wixom,+MI'
p621
(dp622
g3
F42.5247555
sg4
F-83.5363268
ssS'Springfield,+VA'
p623
(dp624
g3
F38.7892801
sg4
F-77.18720359999999
ssS'Coral+Gables,+FL'
p625
(dp626
g3
F25.72149
sg4
F-80.2683838
ssS'Gardena,+CA'
p627
(dp628
g3
F33.8883487
sg4
F-118.3089624
ssS'Mount+Laurel,+NJ'
p629
(dp630
g3
F39.934002
sg4
F-74.89099879999999
ssS'Wayzata,+MN'
p631
(dp632
g3
F44.97413
sg4
F-93.5066217
ssS'Sauk+Rapids,+MN'
p633
(dp634
g3
F45.5919097
sg4
F-94.16610109999999
ssS'Lansdowne,+VA'
p635
(dp636
g3
F39.0832176
sg4
F-77.4793641
ssS'Hollywood,+FL'
p637
(dp638
g3
F26.0112014
sg4
F-80.1494901
ssS'Worthington,+OH'
p639
(dp640
g3
F40.0931191
sg4
F-83.017962
ssS'Lindon,+UT'
p641
(dp642
g3
F40.3432857
sg4
F-111.7207608
ssS'Salt+Lake+City,+UT'
p643
(dp644
g3
F40.7607793
sg4
F-111.8910474
ssS'Hartford,+CT'
p645
(dp646
g3
F41.76371109999999
sg4
F-72.6850932
ssS'Phoenix,+AZ'
p647
(dp648
g3
F33.4483771
sg4
F-112.0740373
ssS'Montgomery,+IL'
p649
(dp650
g3
F41.730585
sg4
F-88.3459048
ssS'Monsey,+NY'
p651
(dp652
g3
F41.1112069
sg4
F-74.0684751
ssS'Gulf+Breeze,+FL'
p653
(dp654
g3
F30.3571438
sg4
F-87.1638574
ssS'Woodville,+WI'
p655
(dp656
g3
F44.95302059999999
sg4
F-92.29129929999999
ssS'Johnson+City,+TN'
p657
(dp658
g3
F36.3134397
sg4
F-82.3534727
ssS'Canton,+GA'
p659
(dp660
g3
F34.2367621
sg4
F-84.4907621
ssS'Deer+Park,+TX'
p661
(dp662
g3
F29.7052284
sg4
F-95.1238204
ssS'Dane,+WI'
p663
(dp664
g3
F43.2505472
sg4
F-89.5015088
ssS'Greenbelt,+MD'
p665
(dp666
g3
F39.0045544
sg4
F-76.87552819999999
ssS'Madison,+CT'
p667
(dp668
g3
F41.2959908
sg4
F-72.5754149
ssS'Greenacres,+FL'
p669
(dp670
g3
F26.6276276
sg4
F-80.1353896
ssS'Mt.+Sterling,+IL'
p671
(dp672
g3
F39.9872707
sg4
F-90.763463
ssS'Austell,+GA'
p673
(dp674
g3
F33.8126059
sg4
F-84.6343783
ssS'Rock+Hill,+NY'
p675
(dp676
g3
F41.6259256
sg4
F-74.5976603
ssS'El+Segunod,+CA'
p677
(dp678
g3
F33.9191799
sg4
F-118.4164652
ssS'East+Dundee,+IL'
p679
(dp680
g3
F42.0989145
sg4
F-88.2714689
ssS'Easton,+MD'
p681
(dp682
g3
F38.7742826
sg4
F-76.0763305
ssS'Gladwyne,+PA'
p683
(dp684
g3
F40.0493121
sg4
F-75.2770721
ssS'Huntington,+NY'
p685
(dp686
g3
F40.8681539
sg4
F-73.425676
ssS'Coronado,+CA'
p687
(dp688
g3
F32.6858853
sg4
F-117.1830891
ssS'Livingston,+NJ'
p689
(dp690
g3
F40.7862871
sg4
F-74.3300842
ssS'Blue+Ash,+OH'
p691
(dp692
g3
F39.2320029
sg4
F-84.3782734
ssS'Latham,+NY'
p693
(dp694
g3
F42.746944
sg4
F-73.758889
ssS'Pleasant+Ridge,+MI'
p695
(dp696
g3
F42.47114699999999
sg4
F-83.1421482
ssS'Ramsey,+NJ'
p697
(dp698
g3
F41.0573188
sg4
F-74.1409771
ssS'Victor,+NY'
p699
(dp700
g3
F42.9825633
sg4
F-77.4088794
ssS'Cotati,+CA'
p701
(dp702
g3
F38.327778
sg4
F-122.709167
ssS'Antioch,+TN'
p703
(dp704
g3
F36.0600602
sg4
F-86.6722192
ssS'Salisbury,+MA'
p705
(dp706
g3
F42.84172299999999
sg4
F-70.8605982
ssS'Bellaire,+TX'
p707
(dp708
g3
F29.7057858
sg4
F-95.4588299
ssS'Algona,+WA'
p709
(dp710
g3
F47.2789896
sg4
F-122.2520647
ssS'Woodhaven,+NY'
p711
(dp712
g3
F40.6901366
sg4
F-73.8566087
ssS'Westlake+Ohio,+OH'
p713
(dp714
g3
F41.4553232
sg4
F-81.9179173
ssS'Apopka,+FL'
p715
(dp716
g3
F28.676111
sg4
F-81.510556
ssS'Erlanger,+KY'
p717
(dp718
g3
F39.0167275
sg4
F-84.60077729999999
ssS'Burke,+VA'
p719
(dp720
g3
F38.7934466
sg4
F-77.27165049999999
ssS'charlotte,+NC'
p721
(dp722
g3
F35.2270869
sg4
F-80.8431267
ssS'Towson,+MD'
p723
(dp724
g3
F39.4014955
sg4
F-76.6019125
ssS'Westport,+CT'
p725
(dp726
g3
F41.1414717
sg4
F-73.3579049
ssS'Rockland,+MA'
p727
(dp728
g3
F42.1306563
sg4
F-70.9161551
ssS'Sharon+Hill,+PA'
p729
(dp730
g3
F39.9065017
sg4
F-75.27157319999999
ssS'Walnut+Creek,+CA'
p731
(dp732
g3
F37.9100783
sg4
F-122.0651819
ssS'Lindenhurst,+NY'
p733
(dp734
g3
F40.68676670000001
sg4
F-73.3734547
ssS'Little+Rock,+AR'
p735
(dp736
g3
F34.7464809
sg4
F-92.28959479999999
ssS'Beachwood,+OH'
p737
(dp738
g3
F41.4644979
sg4
F-81.5087322
ssS'Hegins,+PA'
p739
(dp740
g3
F40.6515135
sg4
F-76.4977208
ssS'Brentwood,+TN'
p741
(dp742
g3
F36.0331164
sg4
F-86.78277720000001
ssS'Downers+Grove,+IL'
p743
(dp744
g3
F41.8089191
sg4
F-88.01117459999999
ssS'Bronx,+NY'
p745
(dp746
g3
F40.8447819
sg4
F-73.8648268
ssS'Temecula,+CA'
p747
(dp748
g3
F33.4936391
sg4
F-117.1483648
ssS'Tampa,+FL'
p749
(dp750
g3
F27.950575
sg4
F-82.4571776
ssS'Avon,+OH'
p751
(dp752
g3
F41.4517093
sg4
F-82.03542250000001
ssS'El+Cajon,+CA'
p753
(dp754
g3
F32.7947731
sg4
F-116.9625269
ssS'Forest+Hills,+NY'
p755
(dp756
g3
F40.718106
sg4
F-73.8448469
ssS'Arlington+Heights,+IL'
p757
(dp758
g3
F42.0883603
sg4
F-87.98062650000001
ssS'Altamonte+Springs,+FL'
p759
(dp760
g3
F28.6611089
sg4
F-81.3656242
ssS'Augusta,+GA'
p761
(dp762
g3
F33.4734978
sg4
F-82.0105148
ssS'Malvern,+PA'
p763
(dp764
g3
F40.0362184
sg4
F-75.5138118
ssS'Plymouth,+MA'
p765
(dp766
g3
F41.9584457
sg4
F-70.6672621
ssS'Boston,+MA'
p767
(dp768
g3
F42.3584308
sg4
F-71.0597732
ssS'Redmond,+WA'
p769
(dp770
g3
F47.6739881
sg4
F-122.121512
ssS'Centreville,+VA'
p771
(dp772
g3
F38.8403909
sg4
F-77.42887689999999
ssS'Watsonville,+CA'
p773
(dp774
g3
F36.910231
sg4
F-121.7568946
ssS'Duluth,+GA'
p775
(dp776
g3
F34.0028786
sg4
F-84.1446376
ssS'Ontario,+NY'
p777
(dp778
g3
F43.2209426
sg4
F-77.2833793
ssS'Cleveland,+OH'
p779
(dp780
g3
F41.49932
sg4
F-81.6943605
ssS'Milpitas,+CA'
p781
(dp782
g3
F37.4323341
sg4
F-121.8995741
ssS'bellevue,+WA'
p783
(dp784
g3
F47.610377
sg4
F-122.2006786
ssS'Highlands+Ranch,+CO'
p785
(dp786
g3
F39.544444
sg4
F-104.968056
ssS'Seattle,+WA'
p787
(dp788
g3
F47.6062095
sg4
F-122.3320708
ssS'Manchester,+CT'
p789
(dp790
g3
F41.7759301
sg4
F-72.52150089999999
ssS'Terre+Haute,+IN'
p791
(dp792
g3
F39.4667034
sg4
F-87.41390919999999
ssS'Hickory,+NC'
p793
(dp794
g3
F35.7344538
sg4
F-81.3444573
ssS'Carle+Place,+NY'
p795
(dp796
g3
F40.7526008
sg4
F-73.6104058
ssS'Springville,+UT'
p797
(dp798
g3
F40.1652335
sg4
F-111.6107526
ssS'Lake+Lure,+NC'
p799
(dp800
g3
F35.4278969
sg4
F-82.2048343
ssS'Kissimmee,+FL'
p801
(dp802
g3
F28.2919557
sg4
F-81.40757099999999
ssS'Harbor+City,+CA'
p803
(dp804
g3
F33.7906551
sg4
F-118.2965084
ssS'Albuquerque,+NM'
p805
(dp806
g3
F35.110703
sg4
F-106.609991
ssS'Renton,+WA'
p807
(dp808
g3
F47.48287759999999
sg4
F-122.2170661
ssS'Frisco,+TX'
p809
(dp810
g3
F33.1506744
sg4
F-96.82361159999999
ssS'Winter+Park,+FL'
p811
(dp812
g3
F28.5999998
sg4
F-81.33923519999999
ssS'Chattanooga,+TN'
p813
(dp814
g3
F35.0456297
sg4
F-85.3096801
ssS'Winter+Springs,+FL'
p815
(dp816
g3
F28.6988853
sg4
F-81.30812259999999
ssS'Durham,+NC'
p817
(dp818
g3
F35.9940329
sg4
F-78.898619
ssS'Franklin,+MA'
p819
(dp820
g3
F42.0834313
sg4
F-71.396725
ssS'New+Port+Richey,+FL'
p821
(dp822
g3
F28.2441768
sg4
F-82.7192671
ssS'Cincinnati,+OH'
p823
(dp824
g3
F39.1031182
sg4
F-84.5120196
ssS'Exton,+PA'
p825
(dp826
g3
F40.0325817
sg4
F-75.6274583
ssS'Alameda,+CA'
p827
(dp828
g3
F37.7652065
sg4
F-122.2416355
ssS'Wayne,+PA'
p829
(dp830
g3
F40.0439982
sg4
F-75.38769049999999
ssS'Trinity,+FL'
p831
(dp832
g3
F28.1808458
sg4
F-82.6817662
ssS'Columbia,+MD'
p833
(dp834
g3
F39.2037144
sg4
F-76.86104619999999
ssS'Morganville,+NJ'
p835
(dp836
g3
F40.33599239999999
sg4
F-74.2911154
ssS'Spokane,+WA'
p837
(dp838
g3
F47.6587802
sg4
F-117.4260466
ssS'Columbia,+MO'
p839
(dp840
g3
F38.9517053
sg4
F-92.3340724
ssS'Lenexa,+KS'
p841
(dp842
g3
F38.9536174
sg4
F-94.73357089999999
ssS'Orinda,+CA'
p843
(dp844
g3
F37.8771476
sg4
F-122.1796888
ssS'Long+Island+City,+NY'
p845
(dp846
g3
F40.744679
sg4
F-73.9485424
ssS'Eden+Prairie,+MN'
p847
(dp848
g3
F44.8546856
sg4
F-93.47078599999999
ssS'Laurel,+MD'
p849
(dp850
g3
F39.0992752
sg4
F-76.8483061
ssS'Millersville,+MD'
p851
(dp852
g3
F39.0574783
sg4
F-76.64858219999999
ssS'Gaithersburg,+MD'
p853
(dp854
g3
F39.1434406
sg4
F-77.2013705
ssS'Tucker,+GA'
p855
(dp856
g3
F33.8545479
sg4
F-84.2171424
ssS'Clifton+Park,+NY'
p857
(dp858
g3
F42.844668
sg4
F-73.8183804
ssS'Millington,+TN'
p859
(dp860
g3
F35.3414744
sg4
F-89.8973084
ssS'Newtown,+PA'
p861
(dp862
g3
F40.2283371
sg4
F-74.9322596
ssS'Cleatwater,+FL'
p863
(dp864
g3
F27.9658533
sg4
F-82.8001026
ssS'Colonia,+NJ'
p865
(dp866
g3
F40.584867
sg4
F-74.3039227
ssS'Worcester,+MA'
p867
(dp868
g3
F42.2625932
sg4
F-71.8022934
ssS'Fairfield,+OH'
p869
(dp870
g3
F39.3454673
sg4
F-84.5603187
ssS'Chatsworth,+CA'
p871
(dp872
g3
F34.2506356
sg4
F-118.61481
ssS'Eagle,+ID'
p873
(dp874
g3
F43.6954424
sg4
F-116.3540138
ssS'Santa+Barbara,+CA'
p875
(dp876
g3
F34.4208305
sg4
F-119.6981901
ssS'Beckley,+WV'
p877
(dp878
g3
F37.7781702
sg4
F-81.1881557
ssS'Cupertino,+CA'
p879
(dp880
g3
F37.3229978
sg4
F-122.0321823
ssS'Irmo,+SC'
p881
(dp882
g3
F34.0859829
sg4
F-81.1831513
ssS'Longview,+WA'
p883
(dp884
g3
F46.1381676
sg4
F-122.9381672
ssS'Media,+PA'
p885
(dp886
g3
F39.9167783
sg4
F-75.387693
ssS'Brighton,+MA'
p887
(dp888
g3
F42.3463503
sg4
F-71.1626756
ssS'Chesapeake,+VA'
p889
(dp890
g3
F36.7682088
sg4
F-76.2874927
ssS'Rolling+Meadowns,+IL'
p891
(dp892
g3
F42.0841936
sg4
F-88.0131275
ssS'Kingston,+NH'
p893
(dp894
g3
F42.9364768
sg4
F-71.0533918
ssS'Wall,+NJ'
p895
(dp896
g3
F40.1606666
sg4
F-74.0679753
ssS'Cumming,+GA'
p897
(dp898
g3
F34.2073196
sg4
F-84.14019259999999
ssS'Rochester+Hills,+MI'
p899
(dp900
g3
F42.65836609999999
sg4
F-83.1499322
ssS'Medley,+FL'
p901
(dp902
g3
F25.8406526
sg4
F-80.3264404
ssS'Arvada,+CO'
p903
(dp904
g3
F39.8027644
sg4
F-105.0874842
ssS'Denver,+CO'
p905
(dp906
g3
F39.737567
sg4
F-104.9847179
ssS'Bristol,+CT'
p907
(dp908
g3
F41.67176480000001
sg4
F-72.9492703
ssS'Cary,+NC'
p909
(dp910
g3
F35.79154
sg4
F-78.7811169
ssS'Cambridge,+MA'
p911
(dp912
g3
F42.3736158
sg4
F-71.10973349999999
ssS'Layton,+UT'
p913
(dp914
g3
F41.0602216
sg4
F-111.9710529
ssS'New+London,+CT'
p915
(dp916
g3
F41.3556539
sg4
F-72.0995209
ssS'Doral,+FL'
p917
(dp918
g3
F25.8195424
sg4
F-80.3553302
ssS'Amherst,+WI'
p919
(dp920
g3
F44.4508079
sg4
F-89.28483589999999
ssS'Buford,+GA'
p921
(dp922
g3
F34.1206564
sg4
F-84.0043513
ssS'Syracuse,+NY'
p923
(dp924
g3
F43.0481221
sg4
F-76.14742439999999
ssS'lawrence,+MA'
p925
(dp926
g3
F42.7070354
sg4
F-71.1631137
ssS'Jackson,+WI'
p927
(dp928
g3
F43.3238919
sg4
F-88.1667599
ssS'Burnham,+IL'
p929
(dp930
g3
F41.638924
sg4
F-87.55671079999999
ssS'Annapolis+Junction,+MD'
p931
(dp932
g3
F39.1303579
sg4
F-76.7940759
ssS'Spirit+lake,+IA'
p933
(dp934
g3
F43.4226192
sg4
F-95.1022313
ssS'Vienna,+VA'
p935
(dp936
g3
F38.9012225
sg4
F-77.2652604
ssS'Danvers,+MA'
p937
(dp938
g3
F42.5750009
sg4
F-70.93212199999999
ssS'Wilmington,+NC'
p939
(dp940
g3
F34.2257255
sg4
F-77.9447102
ssS'Acton,+MA'
p941
(dp942
g3
F42.4850931
sg4
F-71.43284
ssS'Calabasas,+CA'
p943
(dp944
g3
F34.138333
sg4
F-118.660833
ssS'Falkville,+AL'
p945
(dp946
g3
F34.3684295
sg4
F-86.908616
ssS'Gallatin,+TN'
p947
(dp948
g3
F36.3883809
sg4
F-86.4466599
ssS'Slater,+IA'
p949
(dp950
g3
F41.8778194
sg4
F-93.6821269
ssS'Columbus,+MS'
p951
(dp952
g3
F33.4956744
sg4
F-88.4272627
ssS'Woodland+Hills,+CA'
p953
(dp954
g3
F34.165357
sg4
F-118.6089752
ssS'Littleton,+CO'
p955
(dp956
g3
F39.613321
sg4
F-105.0166498
ssS'Hyattsville,+MD'
p957
(dp958
g3
F38.9559442
sg4
F-76.9455301
ssS'Birmingham,+AL'
p959
(dp960
g3
F33.5206608
sg4
F-86.80248999999999
ssS'North+Salt+Lake,+UT'
p961
(dp962
g3
F40.8485564
sg4
F-111.9068824
ssS'Van+Nuys,+CA'
p963
(dp964
g3
F34.1898566
sg4
F-118.451357
ssS'Hoover,+AL'
p965
(dp966
g3
F33.4053867
sg4
F-86.8113781
ssS'Mundelein,+IL'
p967
(dp968
g3
F42.263079
sg4
F-88.00396529999999
ssS'Miamisburg,+OH'
p969
(dp970
g3
F39.6428362
sg4
F-84.2866083
ssS'Newport,+RI'
p971
(dp972
g3
F41.4901024
sg4
F-71.3128285
ssS'Midway,+KY'
p973
(dp974
g3
F38.1509077
sg4
F-84.6838344
ssS'Cherry+Hill,+NJ'
p975
(dp976
g3
F39.926813
sg4
F-75.0246312
ssS'Chadwick,+IL'
p977
(dp978
g3
F42.0133599
sg4
F-89.8906765
ssS'Deer+Park,+IL'
p979
(dp980
g3
F42.1608585
sg4
F-88.0814651
ssS'Escondido,+CA'
p981
(dp982
g3
F33.1192068
sg4
F-117.086421
ssS'North+Palm+Beach,+FL'
p983
(dp984
g3
F26.818333
sg4
F-80.063611
ssS'Coppell,+TX'
p985
(dp986
g3
F32.9545687
sg4
F-97.01500779999999
ssS'Laredo,+TX'
p987
(dp988
g3
F27.5305671
sg4
F-99.48032409999999
ssS'McFarland,+WI'
p989
(dp990
g3
F43.0124984
sg4
F-89.2898397
ssS'Boxford,+MA'
p991
(dp992
g3
F42.6611604
sg4
F-70.996726
ssS'Mahwah,+NJ'
p993
(dp994
g3
F41.0886216
sg4
F-74.1435843
ssS'McKinney,+TX'
p995
(dp996
g3
F33.1972465
sg4
F-96.6397822
ssS'long+beach,+CA'
p997
(dp998
g3
F33.7700504
sg4
F-118.1937395
ssS'Valencia,+CA'
p999
(dp1000
g3
F34.3898162
sg4
F-118.5642291
ssS'Canastota,+NY'
p1001
(dp1002
g3
F43.0795121
sg4
F-75.7507413
ssS'Dover,+DE'
p1003
(dp1004
g3
F39.158168
sg4
F-75.5243682
ssS'Northville,+MI'
p1005
(dp1006
g3
F42.4311464
sg4
F-83.4832692
ssS'Lancaster,+PA'
p1007
(dp1008
g3
F40.0378755
sg4
F-76.3055144
ssS'Fort+Myers,+FL'
p1009
(dp1010
g3
F26.640628
sg4
F-81.8723084
ssS'Amelia,+LA'
p1011
(dp1012
g3
F29.6663204
sg4
F-91.1020449
ssS'Statesville,+NC'
p1013
(dp1014
g3
F35.7826363
sg4
F-80.8872959
ssS'Schuamburg,+IL'
p1015
(dp1016
g3
F42.0333607
sg4
F-88.0834059
ssS'Borden,+IN'
p1017
(dp1018
g3
F38.4667284
sg4
F-85.9458044
ssS'New+York,+NY'
p1019
(dp1020
g3
F40.7127837
sg4
F-74.0059413
ssS'Cohoes,+NY'
p1021
(dp1022
g3
F42.7742446
sg4
F-73.70011869999999
ssS'Lexington,+MA'
p1023
(dp1024
g3
F42.4430372
sg4
F-71.2289641
ssS'Lombard,+IL'
p1025
(dp1026
g3
F41.8800296
sg4
F-88.00784349999999
ssS'Jersey+City,+NJ'
p1027
(dp1028
g3
F40.72815749999999
sg4
F-74.0776417
ssS'Center+Harbor,+NH'
p1029
(dp1030
g3
F43.708056
sg4
F-71.463611
ssS'Middleburg,+VA'
p1031
(dp1032
g3
F38.9687211
sg4
F-77.7355496
ssS'West+Islip,+NY'
p1033
(dp1034
g3
F40.7062104
sg4
F-73.3062302
ssS'Kent,+WA'
p1035
(dp1036
g3
F47.3809335
sg4
F-122.2348431
ssS'Palm+Harbor,+FL'
p1037
(dp1038
g3
F28.0780718
sg4
F-82.7637127
ssS'Englewood,+NJ'
p1039
(dp1040
g3
F40.8928771
sg4
F-73.9726381
ssS'Clarksville,+MD'
p1041
(dp1042
g3
F39.2061962
sg4
F-76.94556639999999
ssS'Greenville,+SC'
p1043
(dp1044
g3
F34.85261759999999
sg4
F-82.3940104
ssS'Fort+Washington,+PA'
p1045
(dp1046
g3
F40.1416782
sg4
F-75.19269369999999
ssS'Chester,+PA'
p1047
(dp1048
g3
F39.849557
sg4
F-75.3557457
ssS'Burlington,+VT'
p1049
(dp1050
g3
F44.4758825
sg4
F-73.21207199999999
ssS'Loveland,+CO'
p1051
(dp1052
g3
F40.3977612
sg4
F-105.0749801
ssS'Brooklyn,+NY'
p1053
(dp1054
g3
F40.6781784
sg4
F-73.9441579
ssS'Madison,+SD'
p1055
(dp1056
g3
F44.0060847
sg4
F-97.1139496
ssS'Deerfield,+IL'
p1057
(dp1058
g3
F42.1711365
sg4
F-87.8445119
ssS'Davis,+CA'
p1059
(dp1060
g3
F38.5449065
sg4
F-121.7405167
ssS'Billerica,+MA'
p1061
(dp1062
g3
F42.5584218
sg4
F-71.2689461
ssS'Uniondale,+NY'
p1063
(dp1064
g3
F40.7003793
sg4
F-73.5929056
ssS'Fairfield,+NJ'
p1065
(dp1066
g3
F40.8837406
sg4
F-74.3059959
ssS'Savannah,+GA'
p1067
(dp1068
g3
F32.0835407
sg4
F-81.09983419999999
ssS'Aventura,+FL'
p1069
(dp1070
g3
F25.9564812
sg4
F-80.1392121
ssS'West+Chicago,+IL'
p1071
(dp1072
g3
F41.8847507
sg4
F-88.2039607
ssS'Westlake+Village,+CA'
p1073
(dp1074
g3
F34.1466467
sg4
F-118.8073729
ssS'Getzville,+NY'
p1075
(dp1076
g3
F43.0239465
sg4
F-78.7678107
ssS'Parlin,+NJ'
p1077
(dp1078
g3
F40.4620504
sg4
F-74.3382036
ssS'Southfileld,+MI'
p1079
(dp1080
g3
F42.4733688
sg4
F-83.2218731
ssS'Bartlett,+TN'
p1081
(dp1082
g3
F35.2045328
sg4
F-89.8739753
ssS'Chelmsford,+MA'
p1083
(dp1084
g3
F42.5998139
sg4
F-71.3672838
ssS'Massapequa,+NY'
p1085
(dp1086
g3
F40.6806563
sg4
F-73.4742914
ssS'Somerset,+NJ'
p1087
(dp1088
g3
F40.5292099
sg4
F-74.64004320000001
ssS'Plainview,+NY'
p1089
(dp1090
g3
F40.7764882
sg4
F-73.4673454
ssS'Westford,+MA'
p1091
(dp1092
g3
F42.5792583
sg4
F-71.4378411
ssS'Lemont+Furnace,+PA'
p1093
(dp1094
g3
F39.914167
sg4
F-79.669722
ssS'Griffin,+GA'
p1095
(dp1096
g3
F33.2467807
sg4
F-84.2640904
ssS'New+Orleans,+LA'
p1097
(dp1098
g3
F29.95106579999999
sg4
F-90.0715323
ssS'Shawnee,+KS'
p1099
(dp1100
g3
F39.02284849999999
sg4
F-94.7151865
ssS'Colusa,+CA'
p1101
(dp1102
g3
F39.2143343
sg4
F-122.0094175
ssS'Auburn,+ME'
p1103
(dp1104
g3
F44.0978509
sg4
F-70.2311655
ssS'Auburn,+MA'
p1105
(dp1106
g3
F42.1945385
sg4
F-71.8356271
ssS'Elmhurst,+IL'
p1107
(dp1108
g3
F41.8994744
sg4
F-87.9403418
ssS'Canoga+Park,+CA'
p1109
(dp1110
g3
F34.208254
sg4
F-118.6058609
ssS'South+San+Francisco,+CA'
p1111
(dp1112
g3
F37.654656
sg4
F-122.4077498
ssS'McLean,+VA'
p1113
(dp1114
g3
F38.9338676
sg4
F-77.1772604
ssS'Winfield,+KS'
p1115
(dp1116
g3
F37.2397486
sg4
F-96.9955918
ssS'Lorain,+OH'
p1117
(dp1118
g3
F41.452819
sg4
F-82.1823746
ssS'Wilmington,+MA'
p1119
(dp1120
g3
F42.5481714
sg4
F-71.1724467
ssS'Charlestown,+MA'
p1121
(dp1122
g3
F42.3782065
sg4
F-71.0602131
ssS'Spartanburg,+SC'
p1123
(dp1124
g3
F34.9495672
sg4
F-81.9320482
ssS'Lafayette,+LA'
p1125
(dp1126
g3
F30.2240897
sg4
F-92.0198427
ssS'Morristown,+NJ'
p1127
(dp1128
g3
F40.79676670000001
sg4
F-74.4815438
ssS'Staunton,+VA'
p1129
(dp1130
g3
F38.149576
sg4
F-79.0716958
ssS'Murrells+Inlet,+SC'
p1131
(dp1132
g3
F33.5510021
sg4
F-79.0414261
ssS'Meridian,+ID'
p1133
(dp1134
g3
F43.6121087
sg4
F-116.3915131
ssS'The+Woodlands,+TX'
p1135
(dp1136
g3
F30.1658207
sg4
F-95.46126249999999
ssS'Marlow,+OK'
p1137
(dp1138
g3
F34.6481318
sg4
F-97.9580933
ssS'New+Albany,+IN'
p1139
(dp1140
g3
F38.2856247
sg4
F-85.8241312
ssS'Trumbull,+CT'
p1141
(dp1142
g3
F41.2428563
sg4
F-73.2006639
ssS'Plainville,+CT'
p1143
(dp1144
g3
F41.674722
sg4
F-72.856944
ssS'Owings+Mills,+MD'
p1145
(dp1146
g3
F39.4195499
sg4
F-76.7802528
ssS'Honolulu,+HI'
p1147
(dp1148
g3
F21.3069444
sg4
F-157.8583333
ssS'Brandon,+MS'
p1149
(dp1150
g3
F32.2732024
sg4
F-89.9859158
ssS'Fishers,+IN'
p1151
(dp1152
g3
F39.9567548
sg4
F-86.01335
ssS'Bedford,+TX'
p1153
(dp1154
g3
F32.844017
sg4
F-97.1430671
ssS'Nashua,+NH'
p1155
(dp1156
g3
F42.7653662
sg4
F-71.46756599999999
ssS'Port+Chester,+NY'
p1157
(dp1158
g3
F41.0017643
sg4
F-73.66568339999999
ssS'Montebello,+CA'
p1159
(dp1160
g3
F34.0165053
sg4
F-118.1137535
ssS'Brooklyn+Park,+MN'
p1161
(dp1162
g3
F45.0941315
sg4
F-93.3563405
ssS'Diamond+Bar,+CA'
p1163
(dp1164
g3
F34.0286226
sg4
F-117.8103367
ssS'Joplin,+MO'
p1165
(dp1166
g3
F37.08422710000001
sg4
F-94.51328099999999
ssS'Casper,+WY'
p1167
(dp1168
g3
F42.866632
sg4
F-106.313081
ssS'Irvine,+CA'
p1169
(dp1170
g3
F33.6839473
sg4
F-117.7946942
ssS'Newport+Beach,+CA'
p1171
(dp1172
g3
F33.6189101
sg4
F-117.9289469
ssS'Seaford,+DE'
p1173
(dp1174
g3
F38.6412256
sg4
F-75.6110381
ssS'Tempe,+AZ'
p1175
(dp1176
g3
F33.4255104
sg4
F-111.9400054
ssS'Mechanicsburg,+PA'
p1177
(dp1178
g3
F40.2142565
sg4
F-77.0085876
ssS'Warrenton,+VA'
p1179
(dp1180
g3
F38.7134516
sg4
F-77.7952712
ssS'Germantown,+MD'
p1181
(dp1182
g3
F39.1731621
sg4
F-77.2716502
ssS'Plantation,+FL'
p1183
(dp1184
g3
F26.1275862
sg4
F-80.23310359999999
ssS'Orem,+UT'
p1185
(dp1186
g3
F40.2968979
sg4
F-111.6946475
ssS'Sandwich,+IL'
p1187
(dp1188
g3
F41.6458634
sg4
F-88.6217432
ssS'Metairie,+LA'
p1189
(dp1190
g3
F29.9840922
sg4
F-90.1528519
ssS'Cordova,+TN'
p1191
(dp1192
g3
F35.1598334
sg4
F-89.7615474
ssS'Tustin,+CA'
p1193
(dp1194
g3
F33.7458511
sg4
F-117.826166
ssS'Dana+Point,+CA'
p1195
(dp1196
g3
F33.4669721
sg4
F-117.6981075
ssS'Casselberry,+FL'
p1197
(dp1198
g3
F28.677775
sg4
F-81.3278455
ssS'Westminster,+CO'
p1199
(dp1200
g3
F39.8366528
sg4
F-105.0372046
ssS'San+Carlos,+CA'
p1201
(dp1202
g3
F37.5071591
sg4
F-122.2605222
ssS'Westminster,+CA'
p1203
(dp1204
g3
F33.7513419
sg4
F-117.9939921
ssS'Ashburn,+VA'
p1205
(dp1206
g3
F39.0437567
sg4
F-77.4874416
ssS'lake+placid,+FL'
p1207
(dp1208
g3
F27.2930999
sg4
F-81.3628502
ssS'Overland+Park,+KS'
p1209
(dp1210
g3
F38.9822282
sg4
F-94.6707917
ssS'St.+Charles,+IL'
p1211
(dp1212
g3
F41.9141945
sg4
F-88.3086867
ssS'Schertz,+TX'
p1213
(dp1214
g3
F29.5521737
sg4
F-98.269734
ssS'La+Palma,+CA'
p1215
(dp1216
g3
F33.846404
sg4
F-118.0467306
ssS'Strongsville,+OH'
p1217
(dp1218
g3
F41.3144966
sg4
F-81.83569
ssS'Plymouth,+MI'
p1219
(dp1220
g3
F42.3735328
sg4
F-83.5090381
ssS'Draper,+UT'
p1221
(dp1222
g3
F40.5246711
sg4
F-111.8638226
ssS'Torrington,+CT'
p1223
(dp1224
g3
F41.8003049
sg4
F-73.1211715
ssS'Lake+Success,+NY'
p1225
(dp1226
g3
F40.7706572
sg4
F-73.7176312
ssS'Melbourne,+FL'
p1227
(dp1228
g3
F28.0836269
sg4
F-80.60810889999999
ssS'Hudson,+WI'
p1229
(dp1230
g3
F44.9746896
sg4
F-92.7568703
ssS'La+Crosse,+WI'
p1231
(dp1232
g3
F43.8013556
sg4
F-91.23958069999999
ssS"Tyson's+Corner,+VA"
p1233
(dp1234
g3
F38.9187222
sg4
F-77.2310925
ssS'Beaverton,+OR'
p1235
(dp1236
g3
F45.48706199999999
sg4
F-122.8037102
ssS'Blackwood,+NJ'
p1237
(dp1238
g3
F39.8023363
sg4
F-75.0640602
ssS'Janesville,+WI'
p1239
(dp1240
g3
F42.6827885
sg4
F-89.0187222
ssS'Westlake,+OH'
p1241
(dp1242
g3
F41.4553232
sg4
F-81.9179173
ssS'Corpus+Christi,+TX'
p1243
(dp1244
g3
F27.8005828
sg4
F-97.39638099999999
ssS'Springfield,+IL'
p1245
(dp1246
g3
F39.78172130000001
sg4
F-89.6501481
ssS'Toledo,+IL'
p1247
(dp1248
g3
F39.2736491
sg4
F-88.2436522
ssS'Mars,+PA'
p1249
(dp1250
g3
F40.6958996
sg4
F-80.0117254
ssS'Florence,+AL'
p1251
(dp1252
g3
F34.79981
sg4
F-87.677251
ssS'Rockaway,+NJ'
p1253
(dp1254
g3
F40.9300943
sg4
F-74.4872422
ssS'Kettering,+OH'
p1255
(dp1256
g3
F39.68950359999999
sg4
F-84.1688274
ssS'Walden,+NY'
p1257
(dp1258
g3
F41.5612048
sg4
F-74.18848059999999
ssS'Newburyport,+MA'
p1259
(dp1260
g3
F42.8125913
sg4
F-70.87727509999999
ssS'Astoria,+NY'
p1261
(dp1262
g3
F40.7623925
sg4
F-73.9301037
ssS'Cleveland,+MO'
p1263
(dp1264
g3
F38.679177
sg4
F-94.593566
ssS'Merion+Station,+PA'
p1265
(dp1266
g3
F39.9982136
sg4
F-75.2508229
ssS'Richardson,+TX'
p1267
(dp1268
g3
F32.9483335
sg4
F-96.7298519
ssS'Hamilton,+OH'
p1269
(dp1270
g3
F39.3995008
sg4
F-84.5613355
ssS'Mooresville,+NC'
p1271
(dp1272
g3
F35.5848596
sg4
F-80.8100724
ssS'Baltimore,+MD'
p1273
(dp1274
g3
F39.2903848
sg4
F-76.6121893
ssS'White+Oak,+TX'
p1275
(dp1276
g3
F32.5279235
sg4
F-94.86132579999999
ssS'Kennesaw,+GA'
p1277
(dp1278
g3
F34.0234337
sg4
F-84.6154897
ssS'Laguna+Hills,+CA'
p1279
(dp1280
g3
F33.599722
sg4
F-117.699444
ssS'Newton,+MA'
p1281
(dp1282
g3
F42.3370413
sg4
F-71.20922139999999
ssS'Watsontown,+PA'
p1283
(dp1284
g3
F41.0845277
sg4
F-76.8638522
ssS'San+Dimas,+CA'
p1285
(dp1286
g3
F34.1066756
sg4
F-117.8067257
ssS'Corona,+CA'
p1287
(dp1288
g3
F33.8752935
sg4
F-117.5664384
ssS'Vail,+AZ'
p1289
(dp1290
g3
F32.0005283
sg4
F-110.7009206
ssS'Cerritos,+CA'
p1291
(dp1292
g3
F33.8583483
sg4
F-118.0647871
ssS'Westbury,+NY'
p1293
(dp1294
g3
F40.7556561
sg4
F-73.5876273
ssS'Lincolnshire,+IL'
p1295
(dp1296
g3
F42.1900249
sg4
F-87.9084039
ssS'Newark,+NJ'
p1297
(dp1298
g3
F40.735657
sg4
F-74.1723667
ssS'Fort+Mill,+SC'
p1299
(dp1300
g3
F35.0073697
sg4
F-80.94507589999999
ssS'Mohnton,+PA'
p1301
(dp1302
g3
F40.2859255
sg4
F-75.98438039999999
ssS'Deerfield+Beach,+FL'
p1303
(dp1304
g3
F26.3184123
sg4
F-80.09976569999999
ssS'North+Miami+Beach,+FL'
p1305
(dp1306
g3
F25.9331488
sg4
F-80.1625463
ssS'Eugene,+OR'
p1307
(dp1308
g3
F44.0520691
sg4
F-123.0867536
ssS'Morgantown,+WV'
p1309
(dp1310
g3
F39.629526
sg4
F-79.95589679999999
ssS'Raleigh,+NC'
p1311
(dp1312
g3
F35.7795897
sg4
F-78.6381787
ssS'Vincennes,+IN'
p1313
(dp1314
g3
F38.677269
sg4
F-87.5286325
ssS'Cloverdale,+IN'
p1315
(dp1316
g3
F39.5147682
sg4
F-86.7938968
ssS'Appleton,+WI'
p1317
(dp1318
g3
F44.2619309
sg4
F-88.41538469999999
ssS'St.+Simons+Island,+GA'
p1319
(dp1320
g3
F31.1595905
sg4
F-81.3885517
ssS'Tomball,+TX'
p1321
(dp1322
g3
F30.0971621
sg4
F-95.6160549
ssS'Sterling,+VA'
p1323
(dp1324
g3
F39.0066993
sg4
F-77.4291298
ssS'Conyers,+GA'
p1325
(dp1326
g3
F33.6676103
sg4
F-84.01769039999999
ssS'Otsego,+MN'
p1327
(dp1328
g3
F45.2741314
sg4
F-93.5913501
ssS'Carpinteria,+CA'
p1329
(dp1330
g3
F34.39888380000001
sg4
F-119.5184564
ssS'Corvallis,+OR'
p1331
(dp1332
g3
F44.5645659
sg4
F-123.2620435
ssS'Hilton+Head+Island,+SC'
p1333
(dp1334
g3
F32.216316
sg4
F-80.752608
ssS'Orangeburg,+NY'
p1335
(dp1336
g3
F41.0464858
sg4
F-73.94958179999999
ssS'Bingham+Farms,+MI'
p1337
(dp1338
g3
F42.515868
sg4
F-83.2732642
ssS'Norwalk,+CT'
p1339
(dp1340
g3
F41.11774399999999
sg4
F-73.4081575
ssS'Coralville,+IA'
p1341
(dp1342
g3
F41.6822756
sg4
F-91.5960643
ssS'Johns+Creek,+GA'
p1343
(dp1344
g3
F34.0289259
sg4
F-84.198579
ssS'Frederick,+MD'
p1345
(dp1346
g3
F39.41426879999999
sg4
F-77.4105409
ssS'Florence,+SC'
p1347
(dp1348
g3
F34.1954331
sg4
F-79.7625625
ssS'Cheektowaga,+NY'
p1349
(dp1350
g3
F42.9026136
sg4
F-78.74457199999999
ssS'Jessup,+MD'
p1351
(dp1352
g3
F39.1492746
sg4
F-76.7752493
ssS'Barnstable,+MA'
p1353
(dp1354
g3
F41.7003208
sg4
F-70.3002024
ssS'Centerburg,+OH'
p1355
(dp1356
g3
F40.3045067
sg4
F-82.69628290000001
ssS'Pewaukee,+WI'
p1357
(dp1358
g3
F43.0542058
sg4
F-88.21690269999999
ssS'wilmington,+DE'
p1359
(dp1360
g3
F39.7390721
sg4
F-75.5397878
ssS'Ramsey,+MN'
p1361
(dp1362
g3
F45.2611
sg4
F-93.45
ssS'Monterey,+CA'
p1363
(dp1364
g3
F36.6002378
sg4
F-121.8946761
ssS'Valley+City,+ND'
p1365
(dp1366
g3
F46.9233129
sg4
F-98.0031547
ssS'Clayton,+NC'
p1367
(dp1368
g3
F35.650711
sg4
F-78.4563914
ssS'Salisbury,+NC'
p1369
(dp1370
g3
F35.6709727
sg4
F-80.4742261
ssS'Saint+Marys,+KS'
p1371
(dp1372
g3
F39.194164
sg4
F-96.0711041
ssS'San+Clemente,+CA'
p1373
(dp1374
g3
F33.4269728
sg4
F-117.6119925
ssS'Hillsboro,+OR'
p1375
(dp1376
g3
F45.5228939
sg4
F-122.989827
ssS'Fairfield,+CT'
p1377
(dp1378
g3
F41.1408363
sg4
F-73.2612615
ssS'Georgetown,+CT'
p1379
(dp1380
g3
F41.2556512
sg4
F-73.4348438
ssS'Broken+Arrow,+OK'
p1381
(dp1382
g3
F36.060949
sg4
F-95.7974526
ssS'Natick,+MA'
p1383
(dp1384
g3
F42.283333
sg4
F-71.35
ssS'Jackson,+MI'
p1385
(dp1386
g3
F42.245869
sg4
F-84.40134619999999
ssS'Burien,+WA'
p1387
(dp1388
g3
F47.4703767
sg4
F-122.3467918
ssS'New+Windsor,+NY'
p1389
(dp1390
g3
F41.4767605
sg4
F-74.02375180000001
ssS'Jackson,+MS'
p1391
(dp1392
g3
F32.2987573
sg4
F-90.1848103
ssS'Celebration,+FL'
p1393
(dp1394
g3
F28.3252878
sg4
F-81.5331286
ssS'Littleton,+MA'
p1395
(dp1396
g3
F42.5372893
sg4
F-71.5128022
ssS'Rancho+Cucamonga,+CA'
p1397
(dp1398
g3
F34.10639889999999
sg4
F-117.5931084
ssS'Spring,+TX'
p1399
(dp1400
g3
F30.0799405
sg4
F-95.41716009999999
ssS'Golden+Valley,+MN'
p1401
(dp1402
g3
F44.9917149
sg4
F-93.3600034
ssS'Livermore,+CA'
p1403
(dp1404
g3
F37.6818745
sg4
F-121.7680088
ssS'Lansing,+MI'
p1405
(dp1406
g3
F42.732535
sg4
F-84.5555347
ssS'Anaheim+Hills,+CA'
p1407
(dp1408
g3
F33.8508021
sg4
F-117.7490656
ssS'Valley+View,+OH'
p1409
(dp1410
g3
F41.3878312
sg4
F-81.6045685
ssS'Walpole,+MA'
p1411
(dp1412
g3
F42.1417442
sg4
F-71.2495096
ssS'Hickory+Hills,+IL'
p1413
(dp1414
g3
F41.7255879
sg4
F-87.82505499999999
ssS'Norwell,+MA'
p1415
(dp1416
g3
F42.1615157
sg4
F-70.7927832
ssS'Jamestown,+ND'
p1417
(dp1418
g3
F46.9105438
sg4
F-98.7084357
ssS'Lewis+Center,+OH'
p1419
(dp1420
g3
F40.1983958
sg4
F-83.01018429999999
ssS'Hialeah,+FL'
p1421
(dp1422
g3
F25.8575963
sg4
F-80.2781057
ssS'Linden,+NJ'
p1423
(dp1424
g3
F40.6220478
sg4
F-74.24459019999999
ssS'Rushville,+IN'
p1425
(dp1426
g3
F39.6092137
sg4
F-85.4463594
ssS'Bethel+Park,+PA'
p1427
(dp1428
g3
F40.3275697
sg4
F-80.0394977
ssS'Duncanville,+TX'
p1429
(dp1430
g3
F32.6518004
sg4
F-96.9083366
ssS'Ridgeland,+MS'
p1431
(dp1432
g3
F32.4284761
sg4
F-90.1323087
ssS'Great+Neck,+NY'
p1433
(dp1434
g3
F40.8006567
sg4
F-73.7284647
ssS'Syosset,+NY'
p1435
(dp1436
g3
F40.8262101
sg4
F-73.502068
ssS'Mountainside,+NJ'
p1437
(dp1438
g3
F40.6723242
sg4
F-74.3573722
ssS'Oldsmar,+FL'
p1439
(dp1440
g3
F28.0341847
sg4
F-82.6650992
ssS'Mt.+Laurel,+NJ'
p1441
(dp1442
g3
F39.934002
sg4
F-74.89099879999999
ssS'Dardenne+Prairie,+MO'
p1443
(dp1444
g3
F38.76949690000001
sg4
F-90.72901569999999
ssS'Aiea,+HI'
p1445
(dp1446
g3
F21.386338
sg4
F-157.9255357
ssS'Ellicott+City,+MD'
p1447
(dp1448
g3
F39.2673283
sg4
F-76.7983067
ssS"Coeur+d'Alene,+ID"
p1449
(dp1450
g3
F47.6776832
sg4
F-116.7804664
ssS'Mount+Pleasant,+SC'
p1451
(dp1452
g3
F32.8323225
sg4
F-79.82842579999999
ssS'St.+Louis,+MO'
p1453
(dp1454
g3
F38.6270025
sg4
F-90.19940419999999
ssS'West+Hollywood,+CA'
p1455
(dp1456
g3
F34.0900091
sg4
F-118.3617443
ssS'Isle+of+Palms,+SC'
p1457
(dp1458
g3
F32.796389
sg4
F-79.765
ssS'Northborough,+MA'
p1459
(dp1460
g3
F42.3195556
sg4
F-71.6411997
ssS'Niles,+IL'
p1461
(dp1462
g3
F42.0189191
sg4
F-87.80284019999999
ssS'Santa+Clarita,+CA'
p1463
(dp1464
g3
F34.3916641
sg4
F-118.542586
ssS'King+of+Prussia,+PA'
p1465
(dp1466
g3
F40.1012856
sg4
F-75.3835525
ssS'Sheffield+Village,+OH'
p1467
(dp1468
g3
F41.4211547
sg4
F-82.09625899999999
ssS'Berthoud,+CO'
p1469
(dp1470
g3
F40.3083174
sg4
F-105.0810924
ssS'Emeryville,+CA'
p1471
(dp1472
g3
F37.831316
sg4
F-122.2852473
ssS'Hendersonville,+NC'
p1473
(dp1474
g3
F35.3187279
sg4
F-82.4609528
ssS'Spring+Hill,+FL'
p1475
(dp1476
g3
F28.4831682
sg4
F-82.5369872
ssS'Champaign,+IL'
p1477
(dp1478
g3
F40.1164204
sg4
F-88.2433829
ssS'Beloit,+WI'
p1479
(dp1480
g3
F42.5083482
sg4
F-89.03177649999999
ssS'Woodbridge,+VA'
p1481
(dp1482
g3
F38.6581722
sg4
F-77.2497049
ssS'Santa+Clara,+CA'
p1483
(dp1484
g3
F37.3541079
sg4
F-121.9552356
ssS'Tarpon+Springs,+FL'
p1485
(dp1486
g3
F28.1461248
sg4
F-82.7567679
ssS'Newberry,+FL'
p1487
(dp1488
g3
F29.6463535
sg4
F-82.6065023
ssS'Skillman,+NJ'
p1489
(dp1490
g3
F40.4201165
sg4
F-74.7146817
ssS'East+Dubuque,+IL'
p1491
(dp1492
g3
F42.4922253
sg4
F-90.64290539999999
ssS'Mauldin,+SC'
p1493
(dp1494
g3
F34.77873
sg4
F-82.310119
ssS'New+Berlin,+WI'
p1495
(dp1496
g3
F42.9764027
sg4
F-88.1084224
ssS'Markle,+IN'
p1497
(dp1498
g3
F40.8292133
sg4
F-85.3355282
ssS'Middlebury,+CT'
p1499
(dp1500
g3
F41.5278742
sg4
F-73.12761069999999
ssS'Lewisville,+TX'
p1501
(dp1502
g3
F33.046233
sg4
F-96.994174
ssS'Mount+Airy,+MD'
p1503
(dp1504
g3
F39.3762145
sg4
F-77.154704
ssS'Fairport,+NY'
p1505
(dp1506
g3
F43.0986742
sg4
F-77.44193779999999
ssS'Grand+Prairie,+TX'
p1507
(dp1508
g3
F32.7459645
sg4
F-96.99778459999999
ssS'Elkins+Park,+PA'
p1509
(dp1510
g3
F40.0697037
sg4
F-75.1253492
ssS'Kirkland,+WA'
p1511
(dp1512
g3
F47.6814875
sg4
F-122.2087353
ssS'Woodstock,+GA'
p1513
(dp1514
g3
F34.1014873
sg4
F-84.5193754
ssS'Newport+News,+VA'
p1515
(dp1516
g3
F37.0870821
sg4
F-76.4730122
ssS'Waxhaw,+NC'
p1517
(dp1518
g3
F34.9245935
sg4
F-80.7434019
ssS'Sharon,+MA'
p1519
(dp1520
g3
F42.1236499
sg4
F-71.1786237
ssS'Hamilton,+NJ'
p1521
(dp1522
g3
F40.2115109
sg4
F-74.6796651
ssS'Solon,+OH'
p1523
(dp1524
g3
F41.3897764
sg4
F-81.44122589999999
ssS'Westborough,+MA'
p1525
(dp1526
g3
F42.2695216
sg4
F-71.61612939999999
ssS'South+Barrington,+IL'
p1527
(dp1528
g3
F42.08416700000001
sg4
F-88.15472199999999
ssS'Jupiter,+FL'
p1529
(dp1530
g3
F26.9342246
sg4
F-80.0942087
ssS'Buffalo+Grove,+IL'
p1531
(dp1532
g3
F42.1662831
sg4
F-87.9631308
ssS'Menlo+Park,+CA'
p1533
(dp1534
g3
F37.4529598
sg4
F-122.1817252
ssS'El+Segundo,+CA'
p1535
(dp1536
g3
F33.9191799
sg4
F-118.4164652
ssS'Wausau,+WI'
p1537
(dp1538
g3
F44.9591352
sg4
F-89.6301221
ssS'Bensenville,+IL'
p1539
(dp1540
g3
F41.9550296
sg4
F-87.94006569999999
ssS'Roslyn+Heights,+NY'
p1541
(dp1542
g3
F40.7887117
sg4
F-73.6473511
ssS'Los+Angeles,+CA'
p1543
(dp1544
g3
F34.0522342
sg4
F-118.2436849
ssS'Newark,+CA'
p1545
(dp1546
g3
F37.5296593
sg4
F-122.0402399
ssS'Clackamas,+OR'
p1547
(dp1548
g3
F45.4076205
sg4
F-122.5703692
ssS'Gurnee,+IL'
p1549
(dp1550
g3
F42.3702996
sg4
F-87.90201859999999
ssS'Katy,+TX'
p1551
(dp1552
g3
F29.7857853
sg4
F-95.8243956
ssS'San+Luis+Obispo,+CA'
p1553
(dp1554
g3
F35.2827524
sg4
F-120.6596156
ssS'Ellisville,+MO'
p1555
(dp1556
g3
F38.5925532
sg4
F-90.5870686
ssS'Osterville,+MA'
p1557
(dp1558
g3
F41.6285902
sg4
F-70.3870055
ssS'Akron,+OH'
p1559
(dp1560
g3
F41.0814447
sg4
F-81.51900529999999
ssS'Ontario,+CA'
p1561
(dp1562
g3
F34.0633443
sg4
F-117.6508876
ssS'Kingwood,+TX'
p1563
(dp1564
g3
F30.0575359
sg4
F-95.19029859999999
ssS'Ketchum,+ID'
p1565
(dp1566
g3
F43.6807402
sg4
F-114.3636619
ssS'Rockford,+MN'
p1567
(dp1568
g3
F45.0872861
sg4
F-93.74150929999999
ssS'Beaumont,+TX'
p1569
(dp1570
g3
F30.080174
sg4
F-94.1265562
ssS'New+Albany,+OH'
p1571
(dp1572
g3
F40.0811745
sg4
F-82.8087864
ssS'Olathe,+KS'
p1573
(dp1574
g3
F38.8813958
sg4
F-94.81912849999999
ssS'Watertown,+CT'
p1575
(dp1576
g3
F41.6062042
sg4
F-73.11833969999999
ssS'Paso+Robles,+CA'
p1577
(dp1578
g3
F35.626944
sg4
F-120.677778
ssS'San+Francisco,+CA'
p1579
(dp1580
g3
F37.7749295
sg4
F-122.4194155
ssS'Oshkosh,+WI'
p1581
(dp1582
g3
F44.0247062
sg4
F-88.5426136
ssS'Roswell,+GA'
p1583
(dp1584
g3
F34.0232431
sg4
F-84.3615555
ssS'Century+City,+CA'
p1585
(dp1586
g3
F34.0536608
sg4
F-118.4133894
ssS'Moraine,+OH'
p1587
(dp1588
g3
F39.7061702
sg4
F-84.2193849
ssS'Seaside,+CA'
p1589
(dp1590
g3
F36.611111
sg4
F-121.844722
ssS'Sanford,+NC'
p1591
(dp1592
g3
F35.4798757
sg4
F-79.1802994
ssS'Pompton+Plains,+NJ'
p1593
(dp1594
g3
F40.9681661
sg4
F-74.2958532
ssS'West+Chester,+OH'
p1595
(dp1596
g3
F39.3321262
sg4
F-84.41726659999999
ssS'Enka,+NC'
p1597
(dp1598
g3
F35.54983199999999
sg4
F-82.650128
ssS'West+Salem,+WI'
p1599
(dp1600
g3
F43.8991321
sg4
F-91.08124649999999
ssS'Greensboro,+NC'
p1601
(dp1602
g3
F36.0726354
sg4
F-79.7919754
ssS'Mansfield,+MA'
p1603
(dp1604
g3
F42.03345650000001
sg4
F-71.2190578
ssS'East+Norriton,+PA'
p1605
(dp1606
g3
F40.1517741
sg4
F-75.3365695
ssS'Geneva,+IL'
p1607
(dp1608
g3
F41.8875281
sg4
F-88.3053525
ssS'Monroe,+OH'
p1609
(dp1610
g3
F39.44033599999999
sg4
F-84.3621634
ssS'Clayton,+MO'
p1611
(dp1612
g3
F38.6425518
sg4
F-90.32372629999999
ssS'Baton+Rouge,+LA'
p1613
(dp1614
g3
F30.4582829
sg4
F-91.1403196
ssS'Ankeny,+IA'
p1615
(dp1616
g3
F41.7317884
sg4
F-93.6001278
ssS'Westminster,+MD'
p1617
(dp1618
g3
F39.5753791
sg4
F-76.9958149
ssS'Rexburg,+ID'
p1619
(dp1620
g3
F43.816667
sg4
F-111.783333
ssS'Farmingdale,+NY'
p1621
(dp1622
g3
F40.7325997
sg4
F-73.4454009
ssS'Camp+Hill,+PA'
p1623
(dp1624
g3
F40.23981180000001
sg4
F-76.9199742
ssS'Breckenridge,+CO'
p1625
(dp1626
g3
F39.4816537
sg4
F-106.0383518
ssS'Elkhart,+IN'
p1627
(dp1628
g3
F41.6819935
sg4
F-85.9766671
ssS'White+Plains,+NY'
p1629
(dp1630
g3
F41.03398620000001
sg4
F-73.7629097
ssS'Middletown,+RI'
p1631
(dp1632
g3
F41.5218243
sg4
F-71.2834538
ssS'Batavia,+IL'
p1633
(dp1634
g3
F41.8500284
sg4
F-88.3125738
ssS'Naples,+FL'
p1635
(dp1636
g3
F26.1420358
sg4
F-81.7948103
ssS'Orange+Park,+FL'
p1637
(dp1638
g3
F30.1660736
sg4
F-81.706484
ssS'N.+Hollywood,+CA'
p1639
(dp1640
g3
F34.187044
sg4
F-118.3812562
ssS'Newbury,+OH'
p1641
(dp1642
g3
F41.44933899999999
sg4
F-81.27390729999999
ssS'Sandy,+UT'
p1643
(dp1644
g3
F40.57250000000001
sg4
F-111.859722
ssS'Bremen,+IN'
p1645
(dp1646
g3
F41.44643600000001
sg4
F-86.14805799999999
ssS'Fort+Wayne,+IN'
p1647
(dp1648
g3
F41.079273
sg4
F-85.1393513
ssS'Allison+Park,+PA'
p1649
(dp1650
g3
F40.5594832
sg4
F-79.9592134
ssS'Manalapan,+NJ'
p1651
(dp1652
g3
F40.282353
sg4
F-74.346565
ssS'Claremore,+OK'
p1653
(dp1654
g3
F36.3125963
sg4
F-95.61609
ssS'Asheville,+NC'
p1655
(dp1656
g3
F35.5950581
sg4
F-82.5514869
ssS'Des+Moines,+IA'
p1657
(dp1658
g3
F41.6005448
sg4
F-93.6091064
ssS'Matthews,+NC'
p1659
(dp1660
g3
F35.1168131
sg4
F-80.72368039999999
ssS'Coral+Springs,+FL'
p1661
(dp1662
g3
F26.271192
sg4
F-80.2706044
ssS'Sussex,+WI'
p1663
(dp1664
g3
F43.1338972
sg4
F-88.2220372
ssS'Bismarck,+ND'
p1665
(dp1666
g3
F46.8083268
sg4
F-100.7837392
ssS'Toledo,+OH'
p1667
(dp1668
g3
F41.6639383
sg4
F-83.55521200000001
ssS'Bellevue,+WA'
p1669
(dp1670
g3
F47.610377
sg4
F-122.2006786
ssS'Cranberry+Twp,+PA'
p1671
(dp1672
g3
F40.6849626
sg4
F-80.1071379
ssS'Minnetonka,+MN'
p1673
(dp1674
g3
F44.9211836
sg4
F-93.4687489
ssS'Elkridge,+MD'
p1675
(dp1676
g3
F39.21260729999999
sg4
F-76.71358140000001
ssS'Sweetwater,+TN'
p1677
(dp1678
g3
F35.6014636
sg4
F-84.46103939999999
ssS'Wichita,+KS'
p1679
(dp1680
g3
F37.688889
sg4
F-97.336111
ssS'Waverly,+OH'
p1681
(dp1682
g3
F39.1267349
sg4
F-82.9854553
ssS'Stafford,+TX'
p1683
(dp1684
g3
F29.6160671
sg4
F-95.55772209999999
ssS'Villa+Park,+IL'
p1685
(dp1686
g3
F41.8897519
sg4
F-87.98895429999999
ssS'Mount+Airy,+NC'
p1687
(dp1688
g3
F36.4993007
sg4
F-80.6072858
ssS'Lynwood,+CA'
p1689
(dp1690
g3
F33.930293
sg4
F-118.2114603
ssS'Aliso+Viejo,+CA'
p1691
(dp1692
g3
F33.575
sg4
F-117.725556
ssS'Tulsa,+OK'
p1693
(dp1694
g3
F36.1539816
sg4
F-95.99277500000001
ssS'Torrance,+CA'
p1695
(dp1696
g3
F33.8358492
sg4
F-118.3406288
ssS'Vero+Beach,+FL'
p1697
(dp1698
g3
F27.6386434
sg4
F-80.39727359999999
ssS'Rolling+Meadows,+IL'
p1699
(dp1700
g3
F42.0841936
sg4
F-88.0131275
ssS'Lexington+Park,+MD'
p1701
(dp1702
g3
F38.258889
sg4
F-76.45055599999999
ssS'Milford,+MI'
p1703
(dp1704
g3
F42.5916684
sg4
F-83.6003703
ssS'Orlando,+FL'
p1705
(dp1706
g3
F28.5383355
sg4
F-81.3792365
ssS'Fairbury,+NE'
p1707
(dp1708
g3
F40.1466169
sg4
F-97.1798456
ssS'Milford,+MA'
p1709
(dp1710
g3
F42.1398577
sg4
F-71.5163049
ssS'Ft+Lauderdale,+FL'
p1711
(dp1712
g3
F26.1224386
sg4
F-80.13731740000001
ssS'Hinsdale,+IL'
p1713
(dp1714
g3
F41.8008642
sg4
F-87.9370052
ssS'Powder+Springs,+GA'
p1715
(dp1716
g3
F33.8595491
sg4
F-84.683824
ssS'Spearfish,+SD'
p1717
(dp1718
g3
F44.4908172
sg4
F-103.8593698
ssS'North+Eastham,+MA'
p1719
(dp1720
g3
F41.8651071
sg4
F-69.9911305
ssS'Highland+Heights,+OH'
p1721
(dp1722
g3
F41.5519954
sg4
F-81.47845219999999
ssS'Chatham,+NJ'
p1723
(dp1724
g3
F40.740934
sg4
F-74.3837624
ssS'Auburn+Hills,+MI'
p1725
(dp1726
g3
F42.6875323
sg4
F-83.2341028
ssS'West+Bend,+WI'
p1727
(dp1728
g3
F43.4252776
sg4
F-88.1834277
ssS'Paramount,+CA'
p1729
(dp1730
g3
F33.8894598
sg4
F-118.1597911
ssS'Dequeen,+AR'
p1731
(dp1732
g3
F34.1712173
sg4
F-94.31579649999999
ssS'Kailua,+HI'
p1733
(dp1734
g3
F21.4022222
sg4
F-157.7394444
ssS'Pearland,+TX'
p1735
(dp1736
g3
F29.5635666
sg4
F-95.2860474
ssS'Elk+Grove,+CA'
p1737
(dp1738
g3
F38.4087993
sg4
F-121.3716178
ssS'Wilsonville,+OR'
p1739
(dp1740
g3
F45.2998418
sg4
F-122.7737062
ssS'Rome,+GA'
p1741
(dp1742
g3
F34.257038
sg4
F-85.1646726
ssS'Quincy,+MA'
p1743
(dp1744
g3
F42.2528772
sg4
F-71.0022705
ssS'Selbyville,+DE'
p1745
(dp1746
g3
F38.4603917
sg4
F-75.2207437
ssS'Highland+Park,+MI'
p1747
(dp1748
g3
F42.4055925
sg4
F-83.096868
ssS'Coplay,+PA'
p1749
(dp1750
g3
F40.6700965
sg4
F-75.4954612
ssS'Coconut+Creek,+FL'
p1751
(dp1752
g3
F26.2517482
sg4
F-80.17893509999999
ssS'Nashville,+IN'
p1753
(dp1754
g3
F39.2072501
sg4
F-86.24695349999999
ssS'Waukesha,+WI'
p1755
(dp1756
g3
F43.0116784
sg4
F-88.2314813
ssS'Blauvelt,+NY'
p1757
(dp1758
g3
F41.0634299
sg4
F-73.95763780000001
ssS'Rochester,+MN'
p1759
(dp1760
g3
F44.0234
sg4
F-92.46294999999999
ssS'Norwalk,+CA'
p1761
(dp1762
g3
F33.9022367
sg4
F-118.081733
ssS'Clarksville,+VA'
p1763
(dp1764
g3
F36.6240297
sg4
F-78.55694489999999
ssS'Oak+Brook,+IL'
p1765
(dp1766
g3
F41.8397865
sg4
F-87.95355339999999
ssS'Maple+Lawn,+MD'
p1767
(dp1768
g3
F39.1559328
sg4
F-76.90956469999999
ssS'Puyallup,+WA'
p1769
(dp1770
g3
F47.1853785
sg4
F-122.2928974
ssS'Stuart,+FL'
p1771
(dp1772
g3
F27.197548
sg4
F-80.2528257
ssS'Bonita+Springs,+FL'
p1773
(dp1774
g3
F26.339806
sg4
F-81.7786972
ssS'Ooltewah,+TN'
p1775
(dp1776
g3
F35.075074
sg4
F-85.0621728
ssS'Okemos,+MI'
p1777
(dp1778
g3
F42.722257
sg4
F-84.4274744
ssS'Greenbelt,+VA'
p1779
(dp1780
g3
F39.0045544
sg4
F-76.87552819999999
ssS'Palm+Desert,+CA'
p1781
(dp1782
g3
F33.7222445
sg4
F-116.3744556
ssS'Atlatna,+GA'
p1783
(dp1784
g3
F33.7489954
sg4
F-84.3879824
ssS'HIlls,+IA'
p1785
(dp1786
g3
F41.5541855
sg4
F-91.5348875
ssS'Menands,+NY'
p1787
(dp1788
g3
F42.6920233
sg4
F-73.72456389999999
ssS'Prescott+Valley,+AZ'
p1789
(dp1790
g3
F34.6100243
sg4
F-112.315721
ssS'Allston,+MA'
p1791
(dp1792
g3
F42.3539038
sg4
F-71.1337112
ssS'San+Antonio,+TX'
p1793
(dp1794
g3
F29.4241219
sg4
F-98.49362819999999
ssS'Monroe,+NC'
p1795
(dp1796
g3
F34.9854275
sg4
F-80.5495112
ssS'Medford,+NJ'
p1797
(dp1798
g3
F39.864269
sg4
F-74.822471
ssS'Effingham,+IL'
p1799
(dp1800
g3
F39.1200418
sg4
F-88.5433829
ssS'Santa+Ana,+CA'
p1801
(dp1802
g3
F33.7455731
sg4
F-117.8678338
ssS'Fishkill,+NY'
p1803
(dp1804
g3
F41.53564919999999
sg4
F-73.89902520000001
ssS'Saint+Charles,+MO'
p1805
(dp1806
g3
F38.788698
sg4
F-90.511764
ssS'Pittsboro,+NC'
p1807
(dp1808
g3
F35.7201463
sg4
F-79.1772371
ssS'Holbrook,+MA'
p1809
(dp1810
g3
F42.15500000000001
sg4
F-71.00916699999999
ssS'Bethlehem,+PA'
p1811
(dp1812
g3
F40.6259316
sg4
F-75.37045789999999
ssS'Plymouth,+MN'
p1813
(dp1814
g3
F45.0105194
sg4
F-93.4555093
ssS'Boulder,+CO'
p1815
(dp1816
g3
F40.0149856
sg4
F-105.2705456
ssS'Ann+Arbor,+MI'
p1817
(dp1818
g3
F42.2808256
sg4
F-83.7430378
ssS'American+Fork,+UT'
p1819
(dp1820
g3
F40.3768954
sg4
F-111.7957645
ssS'Columbia,+SC'
p1821
(dp1822
g3
F34.0007104
sg4
F-81.0348144
ssS'Woodbine,+MD'
p1823
(dp1824
g3
F39.3738173
sg4
F-77.0569038
ssS'Missoula,+MT'
p1825
(dp1826
g3
F46.8625
sg4
F-114.011667
ssS'Philipsburg,+PA'
p1827
(dp1828
g3
F40.8964465
sg4
F-78.2205688
ssS'Chula+Vista,+CA'
p1829
(dp1830
g3
F32.6400541
sg4
F-117.0841955
ssS'South+Bend,+IN'
p1831
(dp1832
g3
F41.6763545
sg4
F-86.25198979999999
ssS'Plainfield,+IL'
p1833
(dp1834
g3
F41.617222
sg4
F-88.202778
ssS'Lanham,+MD'
p1835
(dp1836
g3
F38.96851119999999
sg4
F-76.8620327
ssS'Columbus,+IN'
p1837
(dp1838
g3
F39.2014404
sg4
F-85.9213796
ssS'Sun+Valley,+CA'
p1839
(dp1840
g3
F34.2279298
sg4
F-118.3812562
ssS'Middleburg+Hts,+OH'
p1841
(dp1842
g3
F41.3614401
sg4
F-81.812912
ssS'North+Las+Vegas,+NV'
p1843
(dp1844
g3
F36.1988592
sg4
F-115.1175013
ssS'Aurora,+CO'
p1845
(dp1846
g3
F39.7294319
sg4
F-104.8319195
ssS'Sandy+Springs,+GA'
p1847
(dp1848
g3
F33.9304352
sg4
F-84.3733147
ssS'Hermosa+Beach,+CA'
p1849
(dp1850
g3
F33.8622366
sg4
F-118.3995194
ssS'Ruston,+LA'
p1851
(dp1852
g3
F32.5232053
sg4
F-92.63792699999999
ssS'Louisville,+KY'
p1853
(dp1854
g3
F38.2526647
sg4
F-85.7584557
ssS'Robbinsville,+NJ'
p1855
(dp1856
g3
F40.2162036
sg4
F-74.6195327
ssS'Glen+Allen,+VA'
p1857
(dp1858
g3
F37.665978
sg4
F-77.5063739
ssS'Adrian,+MI'
p1859
(dp1860
g3
F41.8975471
sg4
F-84.03716589999999
ssS'Glendale+Heights,+IL'
p1861
(dp1862
g3
F41.91030680000001
sg4
F-88.0717353
ssS'Tallayassee,+FL'
p1863
(dp1864
g3
F30.4382559
sg4
F-84.28073289999999
ssS'lansing,+MI'
p1865
(dp1866
g3
F42.732535
sg4
F-84.5555347
ssS'Bowling+Green,+OH'
p1867
(dp1868
g3
F41.3747744
sg4
F-83.6513229
ssS'Denville,+NJ'
p1869
(dp1870
g3
F40.8923212
sg4
F-74.47737750000002
ssS'Kansas+City,+MO'
p1871
(dp1872
g3
F39.0997265
sg4
F-94.5785667
ssS'Stamford,+CT'
p1873
(dp1874
g3
F41.0534302
sg4
F-73.5387341
ssS'Maple+Grove,+MN'
p1875
(dp1876
g3
F45.0724642
sg4
F-93.4557877
ssS'Mt.+Pleasant,+SC'
p1877
(dp1878
g3
F32.8323225
sg4
F-79.82842579999999
ssS'New+York+City,+NY'
p1879
(dp1880
g3
F40.7127837
sg4
F-74.0059413
ssS'Costa+Mesa,+CA'
p1881
(dp1882
g3
F33.6411316
sg4
F-117.9186689
ssS'Oakland,+CA'
p1883
(dp1884
g3
F37.8043637
sg4
F-122.2711137
ssS'iselin,+NJ'
p1885
(dp1886
g3
F40.5753817
sg4
F-74.3223703
ssS'Pleasant+Valley,+NY'
p1887
(dp1888
g3
F41.7445382
sg4
F-73.8212439
ssS'asheville,+NC'
p1889
(dp1890
g3
F35.5950581
sg4
F-82.5514869
ssS'Annapolis,+MD'
p1891
(dp1892
g3
F38.9784453
sg4
F-76.4921829
ssS'Urbana,+IA'
p1893
(dp1894
g3
F42.2241596
sg4
F-91.8743444
ssS'Providence,+RI'
p1895
(dp1896
g3
F41.8239891
sg4
F-71.4128343
ssS'Milton,+NH'
p1897
(dp1898
g3
F43.5
sg4
F-70.960556
ssS'Berea,+OH'
p1899
(dp1900
g3
F41.3661614
sg4
F-81.8543026
ssS'Matawan,+NJ'
p1901
(dp1902
g3
F40.41482999999999
sg4
F-74.2295891
ssS'West+Jordan,+UT'
p1903
(dp1904
g3
F40.6096698
sg4
F-111.9391031
ssS'St+Charles,+IL'
p1905
(dp1906
g3
F41.9141945
sg4
F-88.3086867
ssS'Bloomington,+IN'
p1907
(dp1908
g3
F39.165325
sg4
F-86.52638569999999
ssS'Fort+Worth,+TX'
p1909
(dp1910
g3
F32.7554883
sg4
F-97.3307658
ssS'Oakland+Gardens,+NY'
p1911
(dp1912
g3
F40.7408584
sg4
F-73.758241
ssS'Middletown,+PA'
p1913
(dp1914
g3
F40.199814
sg4
F-76.7310806
ssS'Jacksonville,+FL'
p1915
(dp1916
g3
F30.3321838
sg4
F-81.65565099999999
ssS'Huntingdon+Valley,+PA'
p1917
(dp1918
g3
F40.1379904
sg4
F-75.07279559999999
ssS'Dayton,+OH'
p1919
(dp1920
g3
F39.7589478
sg4
F-84.1916069
ssS'Tallahassee,+FL'
p1921
(dp1922
g3
F30.4382559
sg4
F-84.28073289999999
ssS'North+Bethesda,+MD'
p1923
(dp1924
g3
F39.0445535
sg4
F-77.11886779999999
ssS'Santee,+CA'
p1925
(dp1926
g3
F32.8383828
sg4
F-116.9739167
ssS'Melrose+Park,+IL'
p1927
(dp1928
g3
F41.9005865
sg4
F-87.8567276
ssS'Gilbert,+AZ'
p1929
(dp1930
g3
F33.3528264
sg4
F-111.789027
ssS'Clinton,+NJ'
p1931
(dp1932
g3
F40.6367682
sg4
F-74.90988999999999
ssS'Bridgeport,+CT'
p1933
(dp1934
g3
F41.1865478
sg4
F-73.19517669999999
ssS'Claysville,+PA'
p1935
(dp1936
g3
F40.11785039999999
sg4
F-80.4103439
ssS'Parkland,+FL'
p1937
(dp1938
g3
F26.3107774
sg4
F-80.25322489999999
ssS'Columbus,+GA'
p1939
(dp1940
g3
F32.4609764
sg4
F-84.9877094
ssS'Castle+Rock,+CO'
p1941
(dp1942
g3
F39.3722121
sg4
F-104.8560902
ssS'Lovettsville,+VA'
p1943
(dp1944
g3
F39.2726017
sg4
F-77.636657
ssS'Dublin,+CA'
p1945
(dp1946
g3
F37.7021521
sg4
F-121.9357918
ssS'Carrollton,+TX'
p1947
(dp1948
g3
F32.9756415
sg4
F-96.8899636
ssS'Mountain+View,+CA'
p1949
(dp1950
g3
F37.3860517
sg4
F-122.0838511
ssS'Warrenville,+IL'
p1951
(dp1952
g3
F41.81780699999999
sg4
F-88.17340209999999
ssS'Redondo+Beach,+CA'
p1953
(dp1954
g3
F33.8491816
sg4
F-118.3884078
ssS'West+Palm+Beach,+FL'
p1955
(dp1956
g3
F26.7153424
sg4
F-80.0533746
ssS'Placentia,+CA'
p1957
(dp1958
g3
F33.8722371
sg4
F-117.8703363
ssS'St+Louis+Park,+MN'
p1959
(dp1960
g3
F44.9597376
sg4
F-93.3702186
ssS'Athens,+OH'
p1961
(dp1962
g3
F39.3292396
sg4
F-82.1012554
ssS'Farmington,+UT'
p1963
(dp1964
g3
F40.9804999
sg4
F-111.8874392
ssS'Holland,+OH'
p1965
(dp1966
g3
F41.621718
sg4
F-83.711604
ssS'Granger,+IN'
p1967
(dp1968
g3
F41.7533819
sg4
F-86.11083769999999
ssS'Huntsville,+AL'
p1969
(dp1970
g3
F34.7303688
sg4
F-86.5861037
ssS'Woodstock,+IL'
p1971
(dp1972
g3
F42.3147436
sg4
F-88.44870209999999
ssS'Greenwood,+IN'
p1973
(dp1974
g3
F39.6136578
sg4
F-86.10665259999999
ssS'Willoughby,+OH'
p1975
(dp1976
g3
F41.6397696
sg4
F-81.4065011
ssS'Margate,+FL'
p1977
(dp1978
g3
F26.2445263
sg4
F-80.206436
ssS'Wilmette,+IL'
p1979
(dp1980
g3
F42.0722513
sg4
F-87.7228384
ssS'Oxon+Hill,+MD'
p1981
(dp1982
g3
F38.803056
sg4
F-76.989722
ssS'Gahanna,+OH'
p1983
(dp1984
g3
F40.0192307
sg4
F-82.8793446
ssS'Clarence+Center,+NY'
p1985
(dp1986
g3
F43.0106139
sg4
F-78.6375283
ssS'Morton+Grove,+IL'
p1987
(dp1988
g3
F42.0405852
sg4
F-87.78256209999999
ssS'Mesquite,+NV'
p1989
(dp1990
g3
F36.80553099999999
sg4
F-114.06719
ssS'Beverly+Hills,+CA'
p1991
(dp1992
g3
F34.0736204
sg4
F-118.4003563
ssS'Delray+Beach,+FL'
p1993
(dp1994
g3
F26.4614625
sg4
F-80.0728201
ssS'Portsmouth,+VA'
p1995
(dp1996
g3
F36.8354258
sg4
F-76.2982742
ssS'Lake+Elsinore,+CA'
p1997
(dp1998
g3
F33.6680772
sg4
F-117.3272615
ssS'North+Little+Rock,+AR'
p1999
(dp2000
g3
F34.769536
sg4
F-92.2670941
ssS'Canton,+OH'
p2001
(dp2002
g3
F40.79894729999999
sg4
F-81.378447
ssS'Stoughton,+MA'
p2003
(dp2004
g3
F42.125
sg4
F-71.102778
ssS'Wayland,+IA'
p2005
(dp2006
g3
F41.1472434
sg4
F-91.6607207
ssS'Itasca,+IL'
p2007
(dp2008
g3
F41.9750287
sg4
F-88.0072909
ssS'Bergen,+NY'
p2009
(dp2010
g3
F43.0853387
sg4
F-77.9422336
ssS'Grand+Junction,+CO'
p2011
(dp2012
g3
F39.0638705
sg4
F-108.5506486
ssS'Haymarket,+VA'
p2013
(dp2014
g3
F38.8120591
sg4
F-77.6363806
ssS'Traverse+City,+MI'
p2015
(dp2016
g3
F44.7630567
sg4
F-85.62063169999999
ssS'Old+Lyme,+CT'
p2017
(dp2018
g3
F41.3159315
sg4
F-72.3289715
ssS'Plymouth+Meeting,+PA'
p2019
(dp2020
g3
F40.1023319
sg4
F-75.2743467
ssS'Parsippany,+NJ'
p2021
(dp2022
g3
F40.85963599999999
sg4
F-74.42334799999999
ssS'Twinsburg,+OH'
p2023
(dp2024
g3
F41.3125552
sg4
F-81.4401129
ssS'Sioux+Falls,+SD'
p2025
(dp2026
g3
F43.5445959
sg4
F-96.73110340000001
ssS'Ambler,+PA'
p2027
(dp2028
g3
F40.1545535
sg4
F-75.22156509999999
ssS'Culver+City,+CA'
p2029
(dp2030
g3
F34.0211224
sg4
F-118.3964665
ssS'Boothwyn,+PA'
p2031
(dp2032
g3
F39.8301125
sg4
F-75.4415843
ssS'Winooski,+VT'
p2033
(dp2034
g3
F44.491438
sg4
F-73.1856832
ssS'Covington,+KY'
p2035
(dp2036
g3
F39.0836712
sg4
F-84.5085536
ssS'Salt+Lake,+UT'
p2037
(dp2038
g3
F40.7607793
sg4
F-111.8910474
ssS'Montgomery,+AL'
p2039
(dp2040
g3
F32.3668052
sg4
F-86.2999689
ssS'Buffalo,+NY'
p2041
(dp2042
g3
F42.88644679999999
sg4
F-78.8783689
ssS'Eldersburg,+MD'
p2043
(dp2044
g3
F39.40371469999999
sg4
F-76.9502567
ssS'Hallandale,+FL'
p2045
(dp2046
g3
F25.9812024
sg4
F-80.14837899999999
ssS'Enfield,+NH'
p2047
(dp2048
g3
F43.64064399999999
sg4
F-72.14398299999999
ssS'Salem,+OR'
p2049
(dp2050
g3
F44.9428975
sg4
F-123.0350963
ssS'Caldwell,+ID'
p2051
(dp2052
g3
F43.66293839999999
sg4
F-116.6873596
ssS'Warwick,+RI'
p2053
(dp2054
g3
F41.7001009
sg4
F-71.4161671
ssS'Manhattan,+KS'
p2055
(dp2056
g3
F39.18360819999999
sg4
F-96.57166939999999
ssS'Owosso,+MI'
p2057
(dp2058
g3
F42.9978049
sg4
F-84.1766358
ssS'Riverbank,+CA'
p2059
(dp2060
g3
F37.7360396
sg4
F-120.9354895
ssS'Burlingame,+CA'
p2061
(dp2062
g3
F37.5778696
sg4
F-122.34809
ssS'Warren,+NJ'
p2063
(dp2064
g3
F40.6342489
sg4
F-74.50047959999999
ssS'Princeton,+IN'
p2065
(dp2066
g3
F38.3553236
sg4
F-87.5675222
ssS'Charlottesville,+VA'
p2067
(dp2068
g3
F38.0293059
sg4
F-78.47667810000002
ssS'South+Ogden,+UT'
p2069
(dp2070
g3
F41.1918886
sg4
F-111.9713304
ssS'Horsham,+PA'
p2071
(dp2072
g3
F40.1784422
sg4
F-75.1285061
ssS'Fairborn,+OH'
p2073
(dp2074
g3
F39.8208925
sg4
F-84.01937889999999
ssS'Mishawaka,+IN'
p2075
(dp2076
g3
F41.6619927
sg4
F-86.15861559999999
ssS'Stillwater,+OK'
p2077
(dp2078
g3
F36.1156071
sg4
F-97.0583681
ssS'Westerville,+OH'
p2079
(dp2080
g3
F40.1261743
sg4
F-82.92906959999999
ssS'Beverly,+MA'
p2081
(dp2082
g3
F42.5584283
sg4
F-70.880049
ssS'Ozark,+MO'
p2083
(dp2084
g3
F37.0208865
sg4
F-93.2060163
ssS'Palm+Bay,+FL'
p2085
(dp2086
g3
F28.0344621
sg4
F-80.5886646
ssS'Elk+Grove+Village,+IL'
p2087
(dp2088
g3
F42.0039178
sg4
F-87.9703461
ssS'Findlay,+OH'
p2089
(dp2090
g3
F41.04422
sg4
F-83.6499321
ssS'Lockbourne,+OH'
p2091
(dp2092
g3
F39.8092301
sg4
F-82.972404
ssS'Smyrna,+GA'
p2093
(dp2094
g3
F33.8839926
sg4
F-84.51437609999999
ssS'Petaluma,+CA'
p2095
(dp2096
g3
F38.232417
sg4
F-122.6366524
ssS'Utica,+NY'
p2097
(dp2098
g3
F43.100903
sg4
F-75.232664
ssS'Lake+Zurich,+IL'
p2099
(dp2100
g3
F42.19696889999999
sg4
F-88.0934108
ssS'Amherst,+NY'
p2101
(dp2102
g3
F42.9756133
sg4
F-78.7914222
ssS'City+of+Industry,+CA'
p2103
(dp2104
g3
F34.0197335
sg4
F-117.9586754
ssS'Phoenix,+OR'
p2105
(dp2106
g3
F42.2754058
sg4
F-122.818092
ssS'Santa+Rosa,+CA'
p2107
(dp2108
g3
F38.440429
sg4
F-122.7140548
ssS'Shreveport,+LA'
p2109
(dp2110
g3
F32.5251516
sg4
F-93.7501789
ssS'Bozeman,+MT'
p2111
(dp2112
g3
F45.677778
sg4
F-111.047222
ssS'Pembroke+Pines,+FL'
p2113
(dp2114
g3
F26.007765
sg4
F-80.2962555
ssS'Lehi,+UT'
p2115
(dp2116
g3
F40.3916172
sg4
F-111.8507662
ssS'Broomall,+PA'
p2117
(dp2118
g3
F39.971667
sg4
F-75.354722
ssS'Aledo,+TX'
p2119
(dp2120
g3
F32.6959643
sg4
F-97.6022471
ssS'Reading,+PA'
p2121
(dp2122
g3
F40.3356483
sg4
F-75.9268747
ssS'Washington,+DC'
p2123
(dp2124
g3
F38.9071923
sg4
F-77.0368707
ssS'Hebron,+KY'
p2125
(dp2126
g3
F39.0661472
sg4
F-84.70318879999999
ssS'Danville,+CA'
p2127
(dp2128
g3
F37.8215929
sg4
F-121.9999606
ssS'Duluth,+MN'
p2129
(dp2130
g3
F46.78667189999999
sg4
F-92.1004852
ssS'Pasadena,+TX'
p2131
(dp2132
g3
F29.6910625
sg4
F-95.2091006
ssS'Anaheim,+CA'
p2133
(dp2134
g3
F33.8352932
sg4
F-117.9145036
ssS'Lincoln,+NE'
p2135
(dp2136
g3
F40.809722
sg4
F-96.67527799999999
ssS'Stafford,+VA'
p2137
(dp2138
g3
F38.4220687
sg4
F-77.4083086
ssS'Dallas,+TX'
p2139
(dp2140
g3
F32.7801399
sg4
F-96.80045109999999
ssS'Milford,+CT'
p2141
(dp2142
g3
F41.2306979
sg4
F-73.064036
ssS'Winchester,+VA'
p2143
(dp2144
g3
F39.1856597
sg4
F-78.1633341
ssS'Mosheim,+TN'
p2145
(dp2146
g3
F36.1895438
sg4
F-82.9584902
ssS'San+Marcos,+CA'
p2147
(dp2148
g3
F33.1433723
sg4
F-117.1661449
ssS'Woods+Cross,+UT'
p2149
(dp2150
g3
F40.8716119
sg4
F-111.89216
ssS'Red+Bank,+NJ'
p2151
(dp2152
g3
F40.3470543
sg4
F-74.0643065
ssS'Sharon,+PA'
p2153
(dp2154
g3
F41.2331116
sg4
F-80.4934035
ssS'Provo,+UT'
p2155
(dp2156
g3
F40.2338438
sg4
F-111.6585337
ssS'Radnor,+PA'
p2157
(dp2158
g3
F40.0462208
sg4
F-75.3599105
ssS'Cedarburg,+WI'
p2159
(dp2160
g3
F43.2966716
sg4
F-87.9875898
ssS'Florence,+KY'
p2161
(dp2162
g3
F38.9989499
sg4
F-84.62661109999999
ssS'Fruita,+CO'
p2163
(dp2164
g3
F39.1588696
sg4
F-108.7289882
ssS'Jeffersonville,+IN'
p2165
(dp2166
g3
F38.2775702
sg4
F-85.7371847
ssS'Singer+Island,+FL'
p2167
(dp2168
g3
F26.7850625
sg4
F-80.03754080000002
ssS'Osceola,+WI'
p2169
(dp2170
g3
F45.3205199
sg4
F-92.7049303
ssS'Palm+Beach+Gardens,+FL'
p2171
(dp2172
g3
F26.8233946
sg4
F-80.13865469999999
ssS'Hummelstown,+PA'
p2173
(dp2174
g3
F40.2653681
sg4
F-76.7083033
ssS'Great+Bend,+KS'
p2175
(dp2176
g3
F38.3644567
sg4
F-98.7648073
ssS'Michigan+City,+IN'
p2177
(dp2178
g3
F41.70753939999999
sg4
F-86.8950297
ssS'Moscow,+ID'
p2179
(dp2180
g3
F46.73238749999999
sg4
F-117.0001651
ssS'Leesburg,+VA'
p2181
(dp2182
g3
F39.1156615
sg4
F-77.56360149999999
ssS'Owatonna,+MN'
p2183
(dp2184
g3
F44.0855572
sg4
F-93.2259349
ssS'La+Grange,+IL'
p2185
(dp2186
g3
F41.8050314
sg4
F-87.8692254
ssS'Saint+Petersburg,+FL'
p2187
(dp2188
g3
F27.773056
sg4
F-82.64
ssS'Carmi,+IL'
p2189
(dp2190
g3
F38.0908796
sg4
F-88.1586488
ssS'Buena+Vista,+VA'
p2191
(dp2192
g3
F37.7343004
sg4
F-79.35392379999999
ssS'Brookfield,+CT'
p2193
(dp2194
g3
F41.4825947
sg4
F-73.4095652
ssS'Menomonee+Falls,+WI'
p2195
(dp2196
g3
F43.1788967
sg4
F-88.1173132
ssS'Saint+Pettersburg,+FL'
p2197
(dp2198
g3
F27.773056
sg4
F-82.64
ssS'Middletown,+CT'
p2199
(dp2200
g3
F41.5623209
sg4
F-72.6506488
ssS'Fayetteville,+NC'
p2201
(dp2202
g3
F35.0526641
sg4
F-78.87835849999999
ssS'Housotn,+TX'
p2203
(dp2204
g3
F29.7601927
sg4
F-95.36938959999999
ssS'Oakwood+Village,+OH'
p2205
(dp2206
g3
F39.72533689999999
sg4
F-84.1741059
ssS'Moorestown,+NJ'
p2207
(dp2208
g3
F39.9688817
sg4
F-74.948886
ssS'Rock+Island,+IL'
p2209
(dp2210
g3
F41.5094771
sg4
F-90.5787476
ssS'Lawrenceville,+GA'
p2211
(dp2212
g3
F33.9562149
sg4
F-83.9879625
ssS'Waltham,+MA'
p2213
(dp2214
g3
F42.3764852
sg4
F-71.2356113
ssS'Knightdale,+NC'
p2215
(dp2216
g3
F35.7876515
sg4
F-78.4805563
ssS'Grandville,+MI'
p2217
(dp2218
g3
F42.9097484
sg4
F-85.7630885
ssS'Simi+Valley,+CA'
p2219
(dp2220
g3
F34.2694474
sg4
F-118.781482
ssS'Fargo,+ND'
p2221
(dp2222
g3
F46.8771863
sg4
F-96.7898034
ssS'Texas,+TX'
p2223
(dp2224
g3
F31.9685988
sg4
F-99.9018131
ssS'Waite+Park,+MN'
p2225
(dp2226
g3
F45.5571872
sg4
F-94.2241585
ssS'Walla+Walla,+WA'
p2227
(dp2228
g3
F46.0645809
sg4
F-118.3430209
ssS'Lubbock,+TX'
p2229
(dp2230
g3
F33.5778631
sg4
F-101.8551665
ssS'Wilton,+CT'
p2231
(dp2232
g3
F41.1953739
sg4
F-73.4378988
ssS'Lake+Orion,+MI'
p2233
(dp2234
g3
F42.7844752
sg4
F-83.2396612
ssS'Vista,+CA'
p2235
(dp2236
g3
F33.2000368
sg4
F-117.2425355
ssS'Taos,+NM'
p2237
(dp2238
g3
F36.4072485
sg4
F-105.5730665
ssS'Hopkinton,+MA'
p2239
(dp2240
g3
F42.22869540000001
sg4
F-71.5225646
ssS'Oak+Park,+IL'
p2241
(dp2242
g3
F41.8850317
sg4
F-87.7845025
ssS'Santa+ana,+CA'
p2243
(dp2244
g3
F33.7455731
sg4
F-117.8678338
ssS'Woodbridge,+NJ'
p2245
(dp2246
g3
F40.5575986
sg4
F-74.2846022
ssS'East+Windsor,+NJ'
p2247
(dp2248
g3
F40.2677539
sg4
F-74.5402506
ssS'Flower+Mound,+TX'
p2249
(dp2250
g3
F33.0145673
sg4
F-97.0969552
ssS'Lowell,+MA'
p2251
(dp2252
g3
F42.6334247
sg4
F-71.31617179999999
ssS'La+Jolla,+CA'
p2253
(dp2254
g3
F32.8328112
sg4
F-117.2712717
ssS'Southfield,+MI'
p2255
(dp2256
g3
F42.4733688
sg4
F-83.2218731
ssS'Freeport,+NY'
p2257
(dp2258
g3
F40.6576022
sg4
F-73.58318349999999
ssS'Greenwich,+CT'
p2259
(dp2260
g3
F41.0262417
sg4
F-73.6281964
ssS'Blue+Earth,+MN'
p2261
(dp2262
g3
F43.6375818
sg4
F-94.10239059999999
ssS'Bowie,+MD'
p2263
(dp2264
g3
F39.0067768
sg4
F-76.77913649999999
ssS'Brentwood,+MO'
p2265
(dp2266
g3
F38.6175522
sg4
F-90.34928289999999
ssS'River+Falls,+WI'
p2267
(dp2268
g3
F44.8613563
sg4
F-92.6238082
ssS'Indianapolis,+IN'
p2269
(dp2270
g3
F39.768403
sg4
F-86.158068
ssS'Pittsford,+NY'
p2271
(dp2272
g3
F43.0906186
sg4
F-77.5149969
ssS'Cranbury,+NJ'
p2273
(dp2274
g3
F40.313448
sg4
F-74.520224
ssS'Binghamton,+NY'
p2275
(dp2276
g3
F42.09868669999999
sg4
F-75.91797380000001
ssS'Solana+Beach,+CA'
p2277
(dp2278
g3
F32.991155
sg4
F-117.2711481
ssS'Apex,+NC'
p2279
(dp2280
g3
F35.732652
sg4
F-78.85028559999999
ssS'Moorpark,+CA'
p2281
(dp2282
g3
F34.285558
sg4
F-118.8820414
ssS'Iselin,+NJ'
p2283
(dp2284
g3
F40.5753817
sg4
F-74.3223703
ssS'Norwood,+MA'
p2285
(dp2286
g3
F42.19439089999999
sg4
F-71.19896949999999
ssS'Salem,+NH'
p2287
(dp2288
g3
F42.78855530000001
sg4
F-71.2008912
ssS'New+Castle,+PA'
p2289
(dp2290
g3
F41.0036719
sg4
F-80.34700900000001
ssS'West+Windsor,+NJ'
p2291
(dp2292
g3
F40.2983262
sg4
F-74.618634
ssS'Secaucus,+NJ'
p2293
(dp2294
g3
F40.7895453
sg4
F-74.05652979999999
ssS'Washington+Township,+NJ'
p2295
(dp2296
g3
F39.748424
sg4
F-75.069092
ssS'Blacksburg,+VA'
p2297
(dp2298
g3
F37.2295733
sg4
F-80.4139393
ssS'Lambertville,+NJ'
p2299
(dp2300
g3
F40.36593939999999
sg4
F-74.94294479999999
ssS'Miami+beach,+FL'
p2301
(dp2302
g3
F25.790654
sg4
F-80.1300455
ssS'Lakeland,+FL'
p2303
(dp2304
g3
F28.0394654
sg4
F-81.9498042
ssS'Golden,+CO'
p2305
(dp2306
g3
F39.755543
sg4
F-105.2210997
ssS'Mandeville,+LA'
p2307
(dp2308
g3
F30.35825059999999
sg4
F-90.06563109999999
ssS'Fort+Walton+Beach,+FL'
p2309
(dp2310
g3
F30.42007079999999
sg4
F-86.6170308
ssS'Tyler,+TX'
p2311
(dp2312
g3
F32.3512601
sg4
F-95.30106239999999
ssS'Killingworth,+CT'
p2313
(dp2314
g3
F41.3581869
sg4
F-72.5645602
ssS'Apple+Valley,+MN'
p2315
(dp2316
g3
F44.7319094
sg4
F-93.21772000000001
ssS'Garland,+TX'
p2317
(dp2318
g3
F32.912624
sg4
F-96.63888329999999
ssS'Garden+Grove,+CA'
p2319
(dp2320
g3
F33.7739053
sg4
F-117.9414477
ssS'Durango,+CO'
p2321
(dp2322
g3
F37.27528
sg4
F-107.8800667
ssS'Lexington,+SC'
p2323
(dp2324
g3
F33.9815369
sg4
F-81.2362107
ssS'Belmont,+NH'
p2325
(dp2326
g3
F43.4445327
sg4
F-71.4776054
ssS'Arlington,+TX'
p2327
(dp2328
g3
F32.735687
sg4
F-97.10806559999999
ssS'Belle+Haven,+VA'
p2329
(dp2330
g3
F37.5543003
sg4
F-75.8204861
ssS'Winterville,+NC'
p2331
(dp2332
g3
F35.529051
sg4
F-77.40107619999999
ssS'Winnetka,+CA'
p2333
(dp2334
g3
F34.2048586
sg4
F-118.5739621
ssS'Evanston,+IL'
p2335
(dp2336
g3
F42.0450722
sg4
F-87.68769689999999
ssS'Burbank,+CA'
p2337
(dp2338
g3
F34.1808392
sg4
F-118.3089661
ssS'Marlton,+NJ'
p2339
(dp2340
g3
F39.8912248
sg4
F-74.9218324
ssS'Southern+Pines,+NC'
p2341
(dp2342
g3
F35.1740471
sg4
F-79.3922539
ssS'Lake+in+the+Hills,+IL'
p2343
(dp2344
g3
F42.18169080000001
sg4
F-88.33036179999999
ssS'Oxford,+MS'
p2345
(dp2346
g3
F34.3664951
sg4
F-89.5192484
ssS'Owings,+MD'
p2347
(dp2348
g3
F38.7170349
sg4
F-76.6007915
ssS'Vancouver,+WA'
p2349
(dp2350
g3
F45.6387281
sg4
F-122.6614861
ssS'Middleton,+MA'
p2351
(dp2352
g3
F42.59509389999999
sg4
F-71.0161643
ssS'Vineburg,+CA'
p2353
(dp2354
g3
F38.2724151
sg4
F-122.4385905
ssS'Lake+Havasu+City,+AZ'
p2355
(dp2356
g3
F34.483901
sg4
F-114.3224548
ssS'Olney,+MD'
p2357
(dp2358
g3
F39.1531627
sg4
F-77.066923
ssS'Everett,+WA'
p2359
(dp2360
g3
F47.9789848
sg4
F-122.2020794
ssS'Miramar,+FL'
p2361
(dp2362
g3
F25.9860762
sg4
F-80.30356019999999
ssS'Redding,+CT'
p2363
(dp2364
g3
F41.30453989999999
sg4
F-73.392898
ssS'Land+O+Lakes,+FL'
p2365
(dp2366
g3
F28.2188992
sg4
F-82.45759380000001
ssS'Clarkesville,+GA'
p2367
(dp2368
g3
F34.6125971
sg4
F-83.5248933
ssS'Glenview,+IL'
p2369
(dp2370
g3
F42.0697509
sg4
F-87.7878408
ssS'Tukwila,+WA'
p2371
(dp2372
g3
F47.4739884
sg4
F-122.2609558
ssS'Ebensburg,+PA'
p2373
(dp2374
g3
F40.4850717
sg4
F-78.7247426
ssS'Lumberton,+NC'
p2375
(dp2376
g3
F34.6182199
sg4
F-79.0086424
ssS'St.+Louis+Park,+MN'
p2377
(dp2378
g3
F44.9597376
sg4
F-93.3702186
ssS'Roanoke,+VA'
p2379
(dp2380
g3
F37.2709704
sg4
F-79.9414266
ssS'Holland,+MI'
p2381
(dp2382
g3
F42.7875235
sg4
F-86.1089301
ssS'Monmouth+Junction,+NJ'
p2383
(dp2384
g3
F40.3789957
sg4
F-74.54654359999999
ssS'Ogden,+UT'
p2385
(dp2386
g3
F41.223
sg4
F-111.9738304
ssS'Macon,+GA'
p2387
(dp2388
g3
F32.8406946
sg4
F-83.6324022
ssS'Chandler,+AZ'
p2389
(dp2390
g3
F33.3061605
sg4
F-111.8412502
ssS'So.+Burlington,+VT'
p2391
(dp2392
g3
F44.4758825
sg4
F-73.21207199999999
ssS'Catonsville,+MD'
p2393
(dp2394
g3
F39.2720509
sg4
F-76.73191609999999
ssS'Rockford,+IL'
p2395
(dp2396
g3
F42.2711311
sg4
F-89.0939952
ssS'Lakewood,+NJ'
p2397
(dp2398
g3
F40.08212899999999
sg4
F-74.2097014
ssS'Cedar+Falls,+IA'
p2399
(dp2400
g3
F42.5348993
sg4
F-92.4453161
ssS'Guilford,+CT'
p2401
(dp2402
g3
F41.282778
sg4
F-72.681944
ssS'Rochester,+NY'
p2403
(dp2404
g3
F43.16103
sg4
F-77.6109219
ssS'Altoona,+PA'
p2405
(dp2406
g3
F40.5186809
sg4
F-78.3947359
ssS'Huntington+Beach,+CA'
p2407
(dp2408
g3
F33.660297
sg4
F-117.9992265
ssS'Thonotosassa,+FL'
p2409
(dp2410
g3
F28.0614065
sg4
F-82.3023128
ssS'Canton,+MI'
p2411
(dp2412
g3
F42.3086444
sg4
F-83.48211599999999
ssS'Oakbrook+terrace,+IL'
p2413
(dp2414
g3
F41.8500302
sg4
F-87.96450770000001
ssS'Santa+Cruz,+CA'
p2415
(dp2416
g3
F36.9741171
sg4
F-122.0307963
ssS'Cicero,+IL'
p2417
(dp2418
g3
F41.8455877
sg4
F-87.7539448
ssS'Sunnyvale,+CA'
p2419
(dp2420
g3
F37.36883
sg4
F-122.0363496
ssS'Melville,+NY'
p2421
(dp2422
g3
F40.7934322
sg4
F-73.41512139999999
ssS'Langhorne,+PA'
p2423
(dp2424
g3
F40.1745538
sg4
F-74.92266649999999
ssS'Toms+River,+NJ'
p2425
(dp2426
g3
F39.9537358
sg4
F-74.1979458
ssS'Tysons+Corner,+VA'
p2427
(dp2428
g3
F38.9187222
sg4
F-77.2310925
ssS'Nashville,+TN'
p2429
(dp2430
g3
F36.166667
sg4
F-86.783333
ssS'Crest+Hill,+IL'
p2431
(dp2432
g3
F41.554753
sg4
F-88.0986709
ssS'East+Greenwich,+RI'
p2433
(dp2434
g3
F41.65
sg4
F-71.483333
ssS'Gas+City,+IN'
p2435
(dp2436
g3
F40.4872625
sg4
F-85.6130311
ssS'Atlanta,+GA'
p2437
(dp2438
g3
F33.7489954
sg4
F-84.3879824
ssS'Suffolk,+VA'
p2439
(dp2440
g3
F36.7282054
sg4
F-76.5835621
ssS'Lancaster,+NY'
p2441
(dp2442
g3
F42.9006144
sg4
F-78.6703062
ssS'Stone+Mountain,+GA'
p2443
(dp2444
g3
F33.8081608
sg4
F-84.17019599999999
ssS'Montvale,+NJ'
p2445
(dp2446
g3
F41.0467635
sg4
F-74.0229173
ssS'North+Brunswick,+NJ'
p2447
(dp2448
g3
F40.4525163
sg4
F-74.4766712
ssS'San+Bernardino,+CA'
p2449
(dp2450
g3
F34.1083449
sg4
F-117.2897652
ssS'Bradenton,+FL'
p2451
(dp2452
g3
F27.4989278
sg4
F-82.5748194
ssS'Bryan,+TX'
p2453
(dp2454
g3
F30.6743643
sg4
F-96.3699632
ssS'Woodinville,+WA'
p2455
(dp2456
g3
F47.7542651
sg4
F-122.1634582
ssS'Vernon+Hills,+IL'
p2457
(dp2458
g3
F42.23933230000001
sg4
F-87.9653565
ssS'Braintree,+MA'
p2459
(dp2460
g3
F42.2079017
sg4
F-71.0040013
ssS'Pflugerville,+TX'
p2461
(dp2462
g3
F30.4393696
sg4
F-97.62000429999999
ssS'Westampton,+NJ'
p2463
(dp2464
g3
F40.01841599999999
sg4
F-74.816778
ssS'Homewood,+IL'
p2465
(dp2466
g3
F41.5572567
sg4
F-87.6656014
ssS'St.+Petersburg,+FL'
p2467
(dp2468
g3
F27.773056
sg4
F-82.64
ssS'Riverside,+CA'
p2469
(dp2470
g3
F33.9533487
sg4
F-117.3961564
ssS'South+Jordan,+UT'
p2471
(dp2472
g3
F40.5621704
sg4
F-111.929658
ssS'Los+Gatos,+CA'
p2473
(dp2474
g3
F37.2358078
sg4
F-121.9623751
ssS'Berkeley,+CA'
p2475
(dp2476
g3
F37.8715926
sg4
F-122.272747
ssS'Des+Plaines,+IL'
p2477
(dp2478
g3
F42.0333623
sg4
F-87.88339909999999
ssS'Philadelphia,+PA'
p2479
(dp2480
g3
F39.952335
sg4
F-75.16378900000001
ssS'Foster+City,+CA'
p2481
(dp2482
g3
F37.5585465
sg4
F-122.2710788
ssS'Staten+Island,+NY'
p2483
(dp2484
g3
F40.5795317
sg4
F-74.1502007
ssS'Carrboro,+NC'
p2485
(dp2486
g3
F35.9101438
sg4
F-79.0752895
ssS'Bethesda,+MD'
p2487
(dp2488
g3
F38.984652
sg4
F-77.0947092
ssS'Salem,+MA'
p2489
(dp2490
g3
F42.51954
sg4
F-70.8967155
ssS'Winston-Salem,+NC'
p2491
(dp2492
g3
F36.09985959999999
sg4
F-80.244216
ssS'Garnet+Valley,+PA'
p2493
(dp2494
g3
F39.85834080000001
sg4
F-75.4696206
ssS'Cannon+Falls,+MN'
p2495
(dp2496
g3
F44.5069113
sg4
F-92.905484
ssS'Ballston+Lake,+NY'
p2497
(dp2498
g3
F42.9117377
sg4
F-73.86808719999999
ssS'Zumbrota,+MN'
p2499
(dp2500
g3
F44.294132
sg4
F-92.6690806
ssS'Lebanon,+PA'
p2501
(dp2502
g3
F40.3409251
sg4
F-76.4113497
ssS'Germantown,+WI'
p2503
(dp2504
g3
F43.2286174
sg4
F-88.1103691
ssS'Minneapolis,+MN'
p2505
(dp2506
g3
F44.983334
sg4
F-93.26666999999999
ssS'El+Paso,+TX'
p2507
(dp2508
g3
F31.7699559
sg4
F-106.4968055
ssS'Richmond,+VA'
p2509
(dp2510
g3
F37.5407246
sg4
F-77.4360481
ssS'Addison,+TX'
p2511
(dp2512
g3
F32.96179
sg4
F-96.82916850000001
ssS'Chagrin+Falls,+OH'
p2513
(dp2514
g3
F41.4298516
sg4
F-81.3910999
ssS'Webb+City,+MO'
p2515
(dp2516
g3
F37.1464475
sg4
F-94.4630035
ssS'Gibbsboro,+NJ'
p2517
(dp2518
g3
F39.8381698
sg4
F-74.9648887
ssS'Portland,+OR'
p2519
(dp2520
g3
F45.5234515
sg4
F-122.6762071
ssS'Fairbanks,+AK'
p2521
(dp2522
g3
F64.8377778
sg4
F-147.7163889
ssS'Erdenheim,+PA'
p2523
(dp2524
g3
F40.0909252
sg4
F-75.2156845
ssS'Canfield,+OH'
p2525
(dp2526
g3
F41.0250584
sg4
F-80.7609121
ssS'Brunswick,+OH'
p2527
(dp2528
g3
F41.2381096
sg4
F-81.8418006
ssS'Fridley,+MN'
p2529
(dp2530
g3
F45.0860765
sg4
F-93.2632821
ssS'Shelton,+CT'
p2531
(dp2532
g3
F41.3164856
sg4
F-73.0931641
ssS'Ithaca,+NY'
p2533
(dp2534
g3
F42.4439614
sg4
F-76.5018807
ssS'Portola+Valley,+CA'
p2535
(dp2536
g3
F37.3841066
sg4
F-122.2352443
ssS'Freeport,+OH'
p2537
(dp2538
g3
F40.2106234
sg4
F-81.26621960000001
ssS'Battlefield,+MO'
p2539
(dp2540
g3
F37.1157216
sg4
F-93.3704207
ssS'Frankfort,+KY'
p2541
(dp2542
g3
F38.2009055
sg4
F-84.87328350000001
ssS'Topsfield,+MA'
p2543
(dp2544
g3
F42.6375941
sg4
F-70.9495053
ssS'Poway,+CA'
p2545
(dp2546
g3
F32.9628232
sg4
F-117.0358646
ssS'Medina,+MN'
p2547
(dp2548
g3
F45.0352411
sg4
F-93.5824586
ssS'Ponte+Vedra,+FL'
p2549
(dp2550
g3
F30.2396865
sg4
F-81.38563839999999
ssS'Panama+City,+FL'
p2551
(dp2552
g3
F30.1588129
sg4
F-85.6602058
ssS'Sierra+Madre,+CA'
p2553
(dp2554
g3
F34.1616729
sg4
F-118.0528456
ssS'Mason,+OH'
p2555
(dp2556
g3
F39.3600586
sg4
F-84.309939
ssS'Pleasanton,+CA'
p2557
(dp2558
g3
F37.6624312
sg4
F-121.8746789
ssS'Detroit,+MI'
p2559
(dp2560
g3
F42.331427
sg4
F-83.0457538
ssS'Hatboro,+PA'
p2561
(dp2562
g3
F40.1742757
sg4
F-75.10683879999999
ssS'Fort+Lee,+NJ'
p2563
(dp2564
g3
F40.8509333
sg4
F-73.9701381
ssS'Elizabethtown,+KY'
p2565
(dp2566
g3
F37.7030646
sg4
F-85.8649408
ssS'Merriam,+KS'
p2567
(dp2568
g3
F39.0236165
sg4
F-94.6935701
ssS'South+Windsor,+CT'
p2569
(dp2570
g3
F41.8489872
sg4
F-72.57175509999999
ssS'Santa+Fe+Springs,+CA'
p2571
(dp2572
g3
F33.9472359
sg4
F-118.0853451
ssS'Boise,+ID'
p2573
(dp2574
g3
F43.6187102
sg4
F-116.2146068
ssS'Glen+Ellyn,+IL'
p2575
(dp2576
g3
F41.8775293
sg4
F-88.0670118
ssS'Milwuakie,+OR'
p2577
(dp2578
g3
F45.4462305
sg4
F-122.6392606
ssS'West+Hartford,+CT'
p2579
(dp2580
g3
F41.7620842
sg4
F-72.7420151
ssS'Flint,+MI'
p2581
(dp2582
g3
F43.0125274
sg4
F-83.6874562
ssS'Kodak,+TN'
p2583
(dp2584
g3
F35.9745323
sg4
F-83.6268396
ssS'Portage,+MI'
p2585
(dp2586
g3
F42.2011538
sg4
F-85.5800022
ssS'Shrewsbury,+NJ'
p2587
(dp2588
g3
F40.3295547
sg4
F-74.0615285
ssS'East+Lyme,+CT'
p2589
(dp2590
g3
F41.3531533
sg4
F-72.2295237
ssS'Oneonta,+NY'
p2591
(dp2592
g3
F42.4528571
sg4
F-75.0637746
ssS'Virginia+Beach,+VA'
p2593
(dp2594
g3
F36.8529263
sg4
F-75.97798499999999
ssS'Exeter,+NH'
p2595
(dp2596
g3
F42.9814292
sg4
F-70.9477546
ssS'El+Dorado+Hills,+CA'
p2597
(dp2598
g3
F38.6857367
sg4
F-121.082167
ssS'Knoxville,+TN'
p2599
(dp2600
g3
F35.9606384
sg4
F-83.9207392
ssS'Norfolk,+VA'
p2601
(dp2602
g3
F36.8507689
sg4
F-76.28587259999999
ssS'Kernersville,+NC'
p2603
(dp2604
g3
F36.1198588
sg4
F-80.07365329999999
ssS'Denton,+TX'
p2605
(dp2606
g3
F33.2148412
sg4
F-97.13306829999999
ssS'Warrington,+PA'
p2607
(dp2608
g3
F40.2492741
sg4
F-75.1340604
ssS'Hunt+Valley,+MD'
p2609
(dp2610
g3
F39.4900013
sg4
F-76.65850739999999
ssS'Colden,+NY'
p2611
(dp2612
g3
F42.644167
sg4
F-78.684722
ssS'Allen,+TX'
p2613
(dp2614
g3
F33.1031744
sg4
F-96.67055030000002
ssS'Hauppauge,+NY'
p2615
(dp2616
g3
F40.8256536
sg4
F-73.2026138
ssS'Venice,+CA'
p2617
(dp2618
g3
F33.9962144
sg4
F-118.4688776
ssS'Syracuse,+NE'
p2619
(dp2620
g3
F40.6601895
sg4
F-96.18248349999999
ssS'N.+Charleston,+SC'
p2621
(dp2622
g3
F32.8546197
sg4
F-79.9748103
ssS'Ashland,+NE'
p2623
(dp2624
g3
F41.0393413
sg4
F-96.3683157
ssS'Largo,+FL'
p2625
(dp2626
g3
F27.9094665
sg4
F-82.7873244
ssS'Willow+Grove,+PA'
p2627
(dp2628
g3
F40.1439985
sg4
F-75.1157286
ssS'New+Haven,+CT'
p2629
(dp2630
g3
F41.308274
sg4
F-72.9278835
ssS'Trenton,+NJ'
p2631
(dp2632
g3
F40.2170534
sg4
F-74.7429384
ssS'Falls+Church,+VA'
p2633
(dp2634
g3
F38.88233400000001
sg4
F-77.1710914
ssS'Yukon,+OK'
p2635
(dp2636
g3
F35.5067215
sg4
F-97.76254410000001
ssS'Dorr,+MI'
p2637
(dp2638
g3
F42.7250877
sg4
F-85.7220315
ssS'Farmington+Hills,+MI'
p2639
(dp2640
g3
F42.4989936
sg4
F-83.3677168
ssS'Champlin,+MN'
p2641
(dp2642
g3
F45.1888539
sg4
F-93.39745370000001
ssS'Highland+Park,+IL'
p2643
(dp2644
g3
F42.1816918
sg4
F-87.8003437
ssS'Northampton,+MA'
p2645
(dp2646
g3
F42.3250896
sg4
F-72.64120129999999
ssS'Brookfield,+WI'
p2647
(dp2648
g3
F43.0605671
sg4
F-88.1064787
ssS'Conshohocken,+PA'
p2649
(dp2650
g3
F40.0792766
sg4
F-75.3015714
ssS'Silver+Spring,+MD'
p2651
(dp2652
g3
F38.99066570000001
sg4
F-77.026088
ssS'Leesburg,+FL'
p2653
(dp2654
g3
F28.810823
sg4
F-81.87785819999999
ssS'Lakeville,+MA'
p2655
(dp2656
g3
F41.8459169
sg4
F-70.9495226
ssS'Franklin,+WI'
p2657
(dp2658
g3
F42.888627
sg4
F-88.03841949999999
ssS'Miramar+Beach,+FL'
p2659
(dp2660
g3
F30.374367
sg4
F-86.3585578
ssS'Laguna+Niguel,+CA'
p2661
(dp2662
g3
F33.5225261
sg4
F-117.7075526
ssS'South+Burlington,+VT'
p2663
(dp2664
g3
F44.4669941
sg4
F-73.1709604
ssS'Pittsburgh,+PA'
p2665
(dp2666
g3
F40.44062479999999
sg4
F-79.9958864
ssS'Rocklin,+CA'
p2667
(dp2668
g3
F38.7907339
sg4
F-121.2357828
ssS'Lynnwood,+WA'
p2669
(dp2670
g3
F47.8209301
sg4
F-122.3151313
ssS'Woodbury,+MN'
p2671
(dp2672
g3
F44.9238552
sg4
F-92.9593797
ssS'Blue+Bell,+PA'
p2673
(dp2674
g3
F40.1523309
sg4
F-75.26628900000001
ssS"Coeur+D'+Alene,+ID"
p2675
(dp2676
g3
F47.6776832
sg4
F-116.7804664
ssS'Wayne,+NE'
p2677
(dp2678
g3
F42.2305588
sg4
F-97.0178236
ssS'Miami,+FL'
p2679
(dp2680
g3
F25.7890972
sg4
F-80.2040435
ssS'Kalamazoo,+MI'
p2681
(dp2682
g3
F42.2917069
sg4
F-85.5872286
ssS'Bakersfield,+CA'
p2683
(dp2684
g3
F35.3732921
sg4
F-119.0187125
ssS'Chesterfield,+MI'
p2685
(dp2686
g3
F42.6628105
sg4
F-82.8424208
ssS'Chesterfield,+MO'
p2687
(dp2688
g3
F38.6631083
sg4
F-90.5770675
ssS'Jonesboro,+AR'
p2689
(dp2690
g3
F35.84229670000001
sg4
F-90.704279
ssS'Lewiston,+ME'
p2691
(dp2692
g3
F44.100351
sg4
F-70.21477639999999
ssS'Chalfont,+PA'
p2693
(dp2694
g3
F40.2884395
sg4
F-75.2090623
ssS'Grandview,+WA'
p2695
(dp2696
g3
F46.2509653
sg4
F-119.9017049
ssS'Carpentersville,+IL'
p2697
(dp2698
g3
F42.1211364
sg4
F-88.2578582
ssS'Warren,+MI'
p2699
(dp2700
g3
F42.491944
sg4
F-83.023889
ssS'Princeton,+NJ'
p2701
(dp2702
g3
F40.3572976
sg4
F-74.6672226
ssS'Countryside,+IL'
p2703
(dp2704
g3
F41.778889
sg4
F-87.87388899999999
ssS'Riverview,+FL'
p2705
(dp2706
g3
F27.8661364
sg4
F-82.32648089999999
ssS'Claremont,+CA'
p2707
(dp2708
g3
F34.0966764
sg4
F-117.7197785
ssS'Loomis,+CA'
p2709
(dp2710
g3
F38.8212889
sg4
F-121.1930041
ssS'Chevy+Chase,+MD'
p2711
(dp2712
g3
F38.9949153
sg4
F-77.0772052
ssS'Trevose,+PA'
p2713
(dp2714
g3
F40.1392766
sg4
F-74.9810019
ssS'Little+Falls,+NJ'
p2715
(dp2716
g3
F40.8690101
sg4
F-74.20822860000001
ssS'Lakewood+Ranch,+FL'
p2717
(dp2718
g3
F27.4116947
sg4
F-82.4285223
ssS'Coeur+D+Alene,+ID'
p2719
(dp2720
g3
F47.6776832
sg4
F-116.7804664
ssS'West+Columbia,+SC'
p2721
(dp2722
g3
F33.9934867
sg4
F-81.0739825
ssS'Center+Point,+TX'
p2723
(dp2724
g3
F29.9503035
sg4
F-99.0388996
ssS'Charlotte,+NC'
p2725
(dp2726
g3
F35.2270869
sg4
F-80.8431267
ssS'Urbandale,+IA'
p2727
(dp2728
g3
F41.6266555
sg4
F-93.71216559999999
ssS'St.+Augustine,+FL'
p2729
(dp2730
g3
F29.895833
sg4
F-81.31166700000001
ssS'Whiting,+ME'
p2731
(dp2732
g3
F44.7909119
sg4
F-67.1755412
ssS'Rancho+Cordova,+CA'
p2733
(dp2734
g3
F38.5890723
sg4
F-121.302728
ssS'North+Kansas+City,+MO'
p2735
(dp2736
g3
F39.14290810000001
sg4
F-94.5729781
ssS'Pawtucket,+RI'
p2737
(dp2738
g3
F41.878711
sg4
F-71.38255579999999
ssS'St.+Cloud,+MN'
p2739
(dp2740
g3
F45.5579451
sg4
F-94.16324039999999
ssS'Covina,+CA'
p2741
(dp2742
g3
F34.0900091
sg4
F-117.8903397
ssS'Blue+Mounds,+WI'
p2743
(dp2744
g3
F43.0174968
sg4
F-89.8323454
ssS'San+Gabriel,+CA'
p2745
(dp2746
g3
F34.09611110000001
sg4
F-118.1058333
ssS'New+Kensington,+PA'
p2747
(dp2748
g3
F40.5697892
sg4
F-79.7647705
ssS'Pasadena,+CA'
p2749
(dp2750
g3
F34.1477849
sg4
F-118.1445155
ssS'Palo+Alto,+CA'
p2751
(dp2752
g3
F37.4418834
sg4
F-122.1430195
ssS'Winston+Salem,+NC'
p2753
(dp2754
g3
F36.09985959999999
sg4
F-80.244216
ssS'Austin,+TX'
p2755
(dp2756
g3
F30.267153
sg4
F-97.7430608
ssS'North+Andover,+MA'
p2757
(dp2758
g3
F42.69870239999999
sg4
F-71.1350575
ssS'San+Juan,+PR'
p2759
(dp2760
g3
F18.3863026
sg4
F-66.058249
ssS'Kitty+Hawk,+NC'
p2761
(dp2762
g3
F36.0646102
sg4
F-75.7057346
ssS'Modesto,+CA'
p2763
(dp2764
g3
F37.63909719999999
sg4
F-120.9968782
ssS'Bowling+Green,+KY'
p2765
(dp2766
g3
F36.9685219
sg4
F-86.4808043
ssS'Herndon,+VA'
p2767
(dp2768
g3
F38.9695545
sg4
F-77.3860976
ssS'Tucson,+AZ'
p2769
(dp2770
g3
F32.2217429
sg4
F-110.926479
ssS'Roseville,+CA'
p2771
(dp2772
g3
F38.7521235
sg4
F-121.2880059
ssS'Wilmington,+DE'
p2773
(dp2774
g3
F39.7390721
sg4
F-75.5397878
ssS'Mountain+Brook,+AL'
p2775
(dp2776
g3
F33.5009384
sg4
F-86.75221069999999
ssS'Euclid,+OH'
p2777
(dp2778
g3
F41.5931049
sg4
F-81.5267873
ssS'Citrus+Heights,+CA'
p2779
(dp2780
g3
F38.7071247
sg4
F-121.2810611
ssS'Plaistow,+NH'
p2781
(dp2782
g3
F42.8364781
sg4
F-71.0947805
ssS'West+Valley+City,+UT'
p2783
(dp2784
g3
F40.6916132
sg4
F-112.0010501
ssS'Sun+Prairie,+WI'
p2785
(dp2786
g3
F43.1836046
sg4
F-89.2137254
ssS'Aurora,+IL'
p2787
(dp2788
g3
F41.7605849
sg4
F-88.32007150000001
ssS'Scranton,+PA'
p2789
(dp2790
g3
F41.408969
sg4
F-75.66241219999999
ssS'Derwood,+MD'
p2791
(dp2792
g3
F39.1174267
sg4
F-77.1611903
ssS'Hackensack,+NJ'
p2793
(dp2794
g3
F40.8859325
sg4
F-74.0434736
ssS'Ewing,+NJ'
p2795
(dp2796
g3
F40.2599864
sg4
F-74.79091249999999
ssS'Bountiful,+UT'
p2797
(dp2798
g3
F40.8893895
sg4
F-111.880771
ssS'Hanahan,+SC'
p2799
(dp2800
g3
F32.916944
sg4
F-79.99583299999999
ssS'Chanhassen,+MN'
p2801
(dp2802
g3
F44.86196450000001
sg4
F-93.53231029999999
ssS'Marriottsville,+MD'
p2803
(dp2804
g3
F39.3501047
sg4
F-76.8994213
ssS'West+Allis,+WI'
p2805
(dp2806
g3
F43.0166806
sg4
F-88.0070315
ssS'Palisade,+CO'
p2807
(dp2808
g3
F39.1102587
sg4
F-108.3509193
ssS'Saginaw,+MI'
p2809
(dp2810
g3
F43.4194699
sg4
F-83.9508068
ssS'Arlington,+VA'
p2811
(dp2812
g3
F38.8799697
sg4
F-77.1067698
ssS'Stevensville,+MD'
p2813
(dp2814
g3
F38.9806679
sg4
F-76.3143999
ssS'Hattiesburg,+MS'
p2815
(dp2816
g3
F31.3271189
sg4
F-89.29033919999999
ssS'Peachtree+City,+GA'
p2817
(dp2818
g3
F33.3968557
sg4
F-84.59634319999999
ssS'Pawleys+Island,+SC'
p2819
(dp2820
g3
F33.4332236
sg4
F-79.12143130000001
ssS'Lowell,+AR'
p2821
(dp2822
g3
F36.2553543
sg4
F-94.1307587
ssS'Ft.+Lauderdale,+FL'
p2823
(dp2824
g3
F26.1224386
sg4
F-80.13731740000001
ssS'Glen+Burnie,+MD'
p2825
(dp2826
g3
F39.1626084
sg4
F-76.6246886
ssS'Rogers,+MN'
p2827
(dp2828
g3
F45.1878015
sg4
F-93.5525206
ssS'Greenwood+Villiage,+CO'
p2829
(dp2830
g3
F39.6172101
sg4
F-104.9508141
ssS'Franklin,+TN'
p2831
(dp2832
g3
F35.9250637
sg4
F-86.8688899
ssS'Hartland,+WI'
p2833
(dp2834
g3
F43.105008
sg4
F-88.3420398
ssS'West+Hills,+CA'
p2835
(dp2836
g3
F34.1973122
sg4
F-118.6439809
ssS'Kaukauna,+WI'
p2837
(dp2838
g3
F44.2780432
sg4
F-88.27205029999999
ssS'Corbin,+KY'
p2839
(dp2840
g3
F36.9486986
sg4
F-84.0968761
ssS'Long+Grove,+IL'
p2841
(dp2842
g3
F42.1783584
sg4
F-87.99785179999999
ssS'Dublin,+OH'
p2843
(dp2844
g3
F40.0992294
sg4
F-83.1140771
ssS'Rutherford,+NJ'
p2845
(dp2846
g3
F40.826489
sg4
F-74.10680909999999
ssS'Livonia,+MI'
p2847
(dp2848
g3
F42.36837
sg4
F-83.35270969999999
ssS'Farmington,+CT'
p2849
(dp2850
g3
F41.7360305
sg4
F-72.79502699999999
ssS'San+Marino,+CA'
p2851
(dp2852
g3
F34.121397
sg4
F-118.1064585
ssS'Westwood,+NJ'
p2853
(dp2854
g3
F40.9912087
sg4
F-74.0326395
ssS'Kasnas+City,+MO'
p2855
(dp2856
g3
F39.0997265
sg4
F-94.5785667
ssS'Waukegan,+IL'
p2857
(dp2858
g3
F42.3636331
sg4
F-87.84479379999999
ssS'Carmel,+IN'
p2859
(dp2860
g3
F39.978371
sg4
F-86.1180435
ssS'Newtown+Square,+PA'
p2861
(dp2862
g3
F39.9867772
sg4
F-75.401028
ssS'Longwood,+FL'
p2863
(dp2864
g3
F28.7030519
sg4
F-81.3384011
ssS'Maitland,+FL'
p2865
(dp2866
g3
F28.6277767
sg4
F-81.36312439999999
ssS'Chester,+VA'
p2867
(dp2868
g3
F37.3568157
sg4
F-77.4416505
ssS'Redwood+City,+CA'
p2869
(dp2870
g3
F37.48521520000001
sg4
F-122.2363548
ssS'Pensacola,+FL'
p2871
(dp2872
g3
F30.42130899999999
sg4
F-87.2169149
ssS'Byron+Center,+MI'
p2873
(dp2874
g3
F42.8122508
sg4
F-85.7228061
ssS'Taunton,+MA'
p2875
(dp2876
g3
F41.900101
sg4
F-71.0897674
ssS'Glendale,+CA'
p2877
(dp2878
g3
F34.1425078
sg4
F-118.255075
ssS'Saint+Paul,+MN'
p2879
(dp2880
g3
F44.9537029
sg4
F-93.0899578
ssS'Jamaica,+NY'
p2881
(dp2882
g3
F40.702677
sg4
F-73.7889689
ssS'Fredericksburg,+VA'
p2883
(dp2884
g3
F38.3031837
sg4
F-77.4605399
ssS'Honeoye+Falls,+NY'
p2885
(dp2886
g3
F42.9522855
sg4
F-77.5902759
ssS'Murrieta,+CA'
p2887
(dp2888
g3
F33.5539143
sg4
F-117.2139232
ssS'Saint+Simons+Island,+GA'
p2889
(dp2890
g3
F31.1595905
sg4
F-81.3885517
ssS'Little+Chute,+WI'
p2891
(dp2892
g3
F44.2799872
sg4
F-88.3184394
ssS'Suwanee,+GA'
p2893
(dp2894
g3
F34.0514898
sg4
F-84.0712997
ssS'Salinas,+CA'
p2895
(dp2896
g3
F36.6777372
sg4
F-121.6555013
ssS'Wyomissing,+PA'
p2897
(dp2898
g3
F40.32953699999999
sg4
F-75.9652117
ssS'Concord,+CA'
p2899
(dp2900
g3
F37.9779776
sg4
F-122.0310733
ssS'Broadview+Heights,+OH'
p2901
(dp2902
g3
F41.3139426
sg4
F-81.6851271
ssS'Valley+Forge,+PA'
p2903
(dp2904
g3
F40.0862408
sg4
F-75.4515302
ssS'Auburn,+WA'
p2905
(dp2906
g3
F47.30732279999999
sg4
F-122.2284532
ssS'Christiansburg,+VA'
p2907
(dp2908
g3
F37.1298517
sg4
F-80.4089389
ssS'Short+Hills,+NJ'
p2909
(dp2910
g3
F40.7483499
sg4
F-74.3232194
ssS'Fayetteville,+AR'
p2911
(dp2912
g3
F36.0625795
sg4
F-94.1574263
ssS'Olney,+IL'
p2913
(dp2914
g3
F38.7308811
sg4
F-88.0853154
ssS'Indiana,+PA'
p2915
(dp2916
g3
F40.6214551
sg4
F-79.15253489999999
ssS'Machesney+Park,+IL'
p2917
(dp2918
g3
F42.3472406
sg4
F-89.03899559999999
ssS'Piscataway,+NJ'
p2919
(dp2920
g3
F40.54564
sg4
F-74.46081699999999
ssS'State+College,+PA'
p2921
(dp2922
g3
F40.7933949
sg4
F-77.8600012
ssS'Larkspur,+CA'
p2923
(dp2924
g3
F37.9340915
sg4
F-122.5352539
ssS'Garden+City,+ID'
p2925
(dp2926
g3
F43.6221108
sg4
F-116.2381744
ssS'Marion,+IN'
p2927
(dp2928
g3
F40.5583739
sg4
F-85.6591442
ssS'Novi,+MI'
p2929
(dp2930
g3
F42.48059
sg4
F-83.4754913
ssS'Marion,+IA'
p2931
(dp2932
g3
F42.033279
sg4
F-91.5968958
ssS'Punta+Gorda,+FL'
p2933
(dp2934
g3
F26.9297836
sg4
F-82.0453664
ssS'Irving,+TX'
p2935
(dp2936
g3
F32.8140177
sg4
F-96.9488945
ssS'Troy,+OH'
p2937
(dp2938
g3
F40.0394982
sg4
F-84.20327669999999
ssS'Plano,+TX'
p2939
(dp2940
g3
F33.0198431
sg4
F-96.6988856
ssS'Rensselaer,+NY'
p2941
(dp2942
g3
F42.6425794
sg4
F-73.742898
ssS'Naperville,+IL'
p2943
(dp2944
g3
F41.7858629
sg4
F-88.1472893
ssS'Dulles,+VA'
p2945
(dp2946
g3
F38.9516235
sg4
F-77.44808139999999
ssS'Encino,+CA'
p2947
(dp2948
g3
F34.1517492
sg4
F-118.5214282
ssS'Newport,+KY'
p2949
(dp2950
g3
F39.091449
sg4
F-84.4957757
ssS'Hernon+Lake,+MN'
p2951
(dp2952
g3
F43.7944036
sg4
F-95.32249859999999
ssS'Wayland,+MA'
p2953
(dp2954
g3
F42.3625953
sg4
F-71.3614484
ssS'Conroe,+TX'
p2955
(dp2956
g3
F30.3118769
sg4
F-95.45605119999999
ssS'Racine,+WI'
p2957
(dp2958
g3
F42.7261309
sg4
F-87.78285230000002
ssS'Jersey+Cty,+NJ'
p2959
(dp2960
g3
F40.72815749999999
sg4
F-74.0776417
ssS'Rosemont,+IL'
p2961
(dp2962
g3
F41.99083299999999
sg4
F-87.87388899999999
ssS'Wellington,+FL'
p2963
(dp2964
g3
F26.6617635
sg4
F-80.2683571
ssS'Shelby+Twp,+MI'
p2965
(dp2966
g3
F42.670782
sg4
F-83.0329934
ssS'Holts+Summit,+MO'
p2967
(dp2968
g3
F38.640315
sg4
F-92.1224055
ssS'Northridge,+CA'
p2969
(dp2970
g3
F34.2381251
sg4
F-118.530123
ssS'Weymouth,+MA'
p2971
(dp2972
g3
F42.2180724
sg4
F-70.94103559999999
ssS'Valley+Village,+CA'
p2973
(dp2974
g3
F34.1633045
sg4
F-118.3841777
ssS'Sugarcreek,+OH'
p2975
(dp2976
g3
F40.50312
sg4
F-81.6409582
ssS'Centennial,+CO'
p2977
(dp2978
g3
F39.5807452
sg4
F-104.8771726
ssS'Hilliard,+OH'
p2979
(dp2980
g3
F40.0333961
sg4
F-83.1582451
ssS'West+Trenton,+NJ'
p2981
(dp2982
g3
F40.2577778
sg4
F-74.81527779999999
ssS'New+Glarus,+WI'
p2983
(dp2984
g3
F42.8144473
sg4
F-89.6351217
ssS'Phoenixville,+PA'
p2985
(dp2986
g3
F40.1303822
sg4
F-75.51491279999999
ssS'Crown+Point,+IN'
p2987
(dp2988
g3
F41.4169806
sg4
F-87.3653135
ssS'Bedford,+NH'
p2989
(dp2990
g3
F42.9463291
sg4
F-71.51320079999999
ssS'Manitowoc,+WI'
p2991
(dp2992
g3
F44.0886059
sg4
F-87.657584
ssS'Lisle,+IL'
p2993
(dp2994
g3
F41.801141
sg4
F-88.0747875
ssS'Union+City,+CA'
p2995
(dp2996
g3
F37.5933918
sg4
F-122.0438298
ssS'Wakarusa,+IN'
p2997
(dp2998
g3
F41.5361597
sg4
F-86.02083340000001
ssS'Portland,+ME'
p2999
(dp3000
g3
F43.66147100000001
sg4
F-70.2553259
ssS'Logan,+UT'
p3001
(dp3002
g3
F41.7369803
sg4
F-111.8338359
ssS'Foothill+Ranch,+CA'
p3003
(dp3004
g3
F33.6831832
sg4
F-117.6664308
ssS'Elkton,+MD'
p3005
(dp3006
g3
F39.60677889999999
sg4
F-75.83327179999999
ssS'Lititz,+PA'
p3007
(dp3008
g3
F40.1573169
sg4
F-76.3069014
ssS'Manassas,+VA'
p3009
(dp3010
g3
F38.7509488
sg4
F-77.47526669999999
ssS'Randolph,+MA'
p3011
(dp3012
g3
F42.1619739
sg4
F-71.042551
ssS'Midland,+MI'
p3013
(dp3014
g3
F43.6155825
sg4
F-84.2472116
ssS'Mount+Vernon,+OH'
p3015
(dp3016
g3
F40.3933956
sg4
F-82.4857181
ssS'Jamesville,+NY'
p3017
(dp3018
g3
F42.9920106
sg4
F-76.07158869999999
ssS'Arlington,+MA'
p3019
(dp3020
g3
F42.4153925
sg4
F-71.1564729
ssS'Portsmouth,+NH'
p3021
(dp3022
g3
F43.0717552
sg4
F-70.7625532
ssS'Schiller+Park,+IL'
p3023
(dp3024
g3
F41.95586369999999
sg4
F-87.8708965
ssS'Ferndale,+WA'
p3025
(dp3026
g3
F48.8464991
sg4
F-122.5910056
ssS'Medina,+OH'
p3027
(dp3028
g3
F41.135833
sg4
F-81.864167
ssS'Kimberton,+PA'
p3029
(dp3030
g3
F40.130556
sg4
F-75.572222
ssS'Framingham,+MA'
p3031
(dp3032
g3
F42.279286
sg4
F-71.4161565
ssS'Chantilly,+VA'
p3033
(dp3034
g3
F38.8942786
sg4
F-77.43109919999999
ssS'Hudson,+OH'
p3035
(dp3036
g3
F41.240056
sg4
F-81.44066699999999
ssS'Luray,+VA'
p3037
(dp3038
g3
F38.665397
sg4
F-78.4594522
ssS'Las+Vegas,+NV'
p3039
(dp3040
g3
F36.1699412
sg4
F-115.1398296
ssS'Mesa,+AZ'
p3041
(dp3042
g3
F33.4151843
sg4
F-111.8314724
ssS'Buhler,+KS'
p3043
(dp3044
g3
F38.1344546
sg4
F-97.7700478
ssS'Reston,+VA'
p3045
(dp3046
g3
F38.9586307
sg4
F-77.35700279999999
ssS'Madison+Heights,+MI'
p3047
(dp3048
g3
F42.4858692
sg4
F-83.1052028
ssS'Schenectady,+NY'
p3049
(dp3050
g3
F42.8142432
sg4
F-73.9395687
ssS'Rancho+Santa+Margarita,+CA'
p3051
(dp3052
g3
F33.640855
sg4
F-117.603104
ssS'Brecksville,+OH'
p3053
(dp3054
g3
F41.31977630000001
sg4
F-81.62679039999999
ssS'Murray,+UT'
p3055
(dp3056
g3
F40.6668916
sg4
F-111.8879909
ssS'Cedar+Rapids,+IA'
p3057
(dp3058
g3
F41.9778795
sg4
F-91.6656232
ssS'Sylvania,+OH'
p3059
(dp3060
g3
F41.7189392
sg4
F-83.7129935
ssS'Englewood,+CO'
p3061
(dp3062
g3
F39.6477653
sg4
F-104.9877597
ssS'Mercer+Island,+WA'
p3063
(dp3064
g3
F47.5706548
sg4
F-122.2220673
ssS'Fort+Collins,+CO'
p3065
(dp3066
g3
F40.5852602
sg4
F-105.084423
ssS'Bossier+City,+LA'
p3067
(dp3068
g3
F32.5159852
sg4
F-93.7321228
ssS'Greenville,+NC'
p3069
(dp3070
g3
F35.612661
sg4
F-77.3663538
ssS'Bridgeview,+IL'
p3071
(dp3072
g3
F41.7500323
sg4
F-87.80422159999999
ssS'Southampton,+PA'
p3073
(dp3074
g3
F40.1742759
sg4
F-75.0437814
ssS'Pleasantville,+NY'
p3075
(dp3076
g3
F41.1333371
sg4
F-73.7924152
ssS'Floral+Park,+NY'
p3077
(dp3078
g3
F40.7237133
sg4
F-73.7048532
ssS'Tacoma,+WA'
p3079
(dp3080
g3
F47.2528768
sg4
F-122.4442906
ssS'Garner,+NC'
p3081
(dp3082
g3
F35.7112642
sg4
F-78.61417089999999
ssS'Burlington,+MA'
p3083
(dp3084
g3
F42.5047161
sg4
F-71.1956205
ssS'Mclean,+VA'
p3085
(dp3086
g3
F38.9338676
sg4
F-77.1772604
ssS'Lake+Geneva,+WI'
p3087
(dp3088
g3
F42.5916836
sg4
F-88.4334301
ssS'New+Brunswick,+NJ'
p3089
(dp3090
g3
F40.4862157
sg4
F-74.4518188
ssS'Bloomsburg,+PA'
p3091
(dp3092
g3
F41.003698
sg4
F-76.4549457
ssS'Manhattan+Beach,+CA'
p3093
(dp3094
g3
F33.8847361
sg4
F-118.4109089
ssS'Glen+Carbon,+IL'
p3095
(dp3096
g3
F38.7483814
sg4
F-89.98315799999999
ssS'Idaho+Falls,+ID'
p3097
(dp3098
g3
F43.49165139999999
sg4
F-112.0339645
ssS'Long+Beach,+CA'
p3099
(dp3100
g3
F33.7700504
sg4
F-118.1937395
ssS'Goshen,+NY'
p3101
(dp3102
g3
F41.4020382
sg4
F-74.3243191
ssS'San+Rafael,+CA'
p3103
(dp3104
g3
F37.9735346
sg4
F-122.5310874
ssS'N+Lakewood,+WA'
p3105
(dp3106
g3
F48.1520431
sg4
F-122.2073655
ssS'Exeter,+RI'
p3107
(dp3108
g3
F41.5750676
sg4
F-71.5351476
ssS'Henderson,+NV'
p3109
(dp3110
g3
F36.0395247
sg4
F-114.9817213
ssS'Harrisburg,+PA'
p3111
(dp3112
g3
F40.2731911
sg4
F-76.8867008
ssS'Manistee,+MI'
p3113
(dp3114
g3
F44.2444473
sg4
F-86.324253
ssS'Summerville,+SC'
p3115
(dp3116
g3
F33.0185039
sg4
F-80.17564809999999
ssS'Ardmore,+PA'
p3117
(dp3118
g3
F40.0067785
sg4
F-75.2854622
ssS'Waterloo,+IA'
p3119
(dp3120
g3
F42.492786
sg4
F-92.34257749999999
ssS'Le+Claire,+IA'
p3121
(dp3122
g3
F41.5975061
sg4
F-90.3462215
ssS'Hyde+Park,+UT'
p3123
(dp3124
g3
F41.7988186
sg4
F-111.8191107
ssS'Allentown,+PA'
p3125
(dp3126
g3
F40.6084305
sg4
F-75.4901833
ssS'San+Diego,+CA'
p3127
(dp3128
g3
F32.715738
sg4
F-117.1610838
ssS'Bloomington,+MN'
p3129
(dp3130
g3
F44.840798
sg4
F-93.2982799
ssS'Alpharetta,+GA'
p3131
(dp3132
g3
F34.0753762
sg4
F-84.2940899
ssS'Stoneham,+MA'
p3133
(dp3134
g3
F42.4802469
sg4
F-71.0999719
ssS'Englewood+Cliffs,+NJ'
p3135
(dp3136
g3
F40.88537729999999
sg4
F-73.9523597
ss.