(dp0
S'WA'
p1
S'Washington'
p2
sS'WI'
p3
S'Wisconsin'
p4
sS'WV'
p5
S'West Virginia'
p6
sS'FL'
p7
S'Florida'
p8
sS'WY'
p9
S'Wyoming'
p10
sS'NH'
p11
S'New Hampshire'
p12
sS'NJ'
p13
S'New Jersey'
p14
sS'NM'
p15
S'New Mexico'
p16
sS'NA'
p17
S'National'
p18
sS'NC'
p19
S'North Carolina'
p20
sS'ND'
p21
S'North Dakota'
p22
sS'NE'
p23
S'Nebraska'
p24
sS'NY'
p25
S'New York'
p26
sS'RI'
p27
S'Rhode Island'
p28
sS'NV'
p29
S'Nevada'
p30
sS'GU'
p31
S'Guam'
p32
sS'CO'
p33
S'Colorado'
p34
sS'CA'
p35
S'California'
p36
sS'GA'
p37
S'Georgia'
p38
sS'CT'
p39
S'Connecticut'
p40
sS'OK'
p41
S'Oklahoma'
p42
sS'OH'
p43
S'Ohio'
p44
sS'KS'
p45
S'Kansas'
p46
sS'SC'
p47
S'South Carolina'
p48
sS'KY'
p49
S'Kentucky'
p50
sS'OR'
p51
S'Oregon'
p52
sS'SD'
p53
S'South Dakota'
p54
sS'DE'
p55
S'Delaware'
p56
sS'DC'
p57
S'District of Columbia'
p58
sS'HI'
p59
S'Hawaii'
p60
sS'PR'
p61
S'Puerto Rico'
p62
sS'TX'
p63
S'Texas'
p64
sS'LA'
p65
S'Louisiana'
p66
sS'TN'
p67
S'Tennessee'
p68
sS'PA'
p69
S'Pennsylvania'
p70
sS'VA'
p71
S'Virginia'
p72
sS'VI'
p73
S'Virgin Islands'
p74
sS'AK'
p75
S'Alaska'
p76
sS'AL'
p77
S'Alabama'
p78
sS'AS'
p79
S'American Samoa'
p80
sS'AR'
p81
S'Arkansas'
p82
sS'VT'
p83
S'Vermont'
p84
sS'IL'
p85
S'Illinois'
p86
sS'IN'
p87
S'Indiana'
p88
sS'IA'
p89
S'Iowa'
p90
sS'AZ'
p91
S'Arizona'
p92
sS'ID'
p93
S'Idaho'
p94
sS'ME'
p95
S'Maine'
p96
sS'MD'
p97
S'Maryland'
p98
sS'MA'
p99
S'Massachusetts'
p100
sS'UT'
p101
S'Utah'
p102
sS'MO'
p103
S'Missouri'
p104
sS'MN'
p105
S'Minnesota'
p106
sS'MI'
p107
S'Michigan'
p108
sS'MT'
p109
S'Montana'
p110
sS'MP'
p111
S'Northern Mariana Islands'
p112
sS'MS'
p113
S'Mississippi'
p114
s.